In archive libheart.a:

api_set.o:     file format elf32-littlearm


Disassembly of section i.HR8002_Get_HR_Trust_Level:

00000000 <HR8002_Get_HR_Trust_Level>:
   0:	f500 5000 	add.w	r0, r0, #8192	; 0x2000
   4:	f890 0ed2 	ldrb.w	r0, [r0, #3794]	; 0xed2
   8:	4770      	bx	lr

Disassembly of section i.HR8002_Get_SignalLevel:

00000000 <HR8002_Get_SignalLevel>:
   0:	ebc1 02c1 	rsb	r2, r1, r1, lsl #3
   4:	ebc2 2101 	rsb	r1, r2, r1, lsl #8
   8:	eb00 0081 	add.w	r0, r0, r1, lsl #2
   c:	f500 5080 	add.w	r0, r0, #4096	; 0x1000
  10:	f890 0dd0 	ldrb.w	r0, [r0, #3536]	; 0xdd0
  14:	4770      	bx	lr

Disassembly of section i.HR8002_Get_Switch_Ch_Num:

00000000 <HR8002_Get_Switch_Ch_Num>:
   0:	f500 5000 	add.w	r0, r0, #8192	; 0x2000
   4:	f9b0 0f62 	ldrsh.w	r0, [r0, #3938]	; 0xf62
   8:	4770      	bx	lr

Disassembly of section i.HR8002_LOCAL_PEAK_ALIVE_FRM_THR:

00000000 <HR8002_LOCAL_PEAK_ALIVE_FRM_THR>:
   0:	f8a0 1068 	strh.w	r1, [r0, #104]	; 0x68
   4:	4770      	bx	lr

Disassembly of section i.HR8002_LOCAL_PEAK_DEAD_FRM_THR:

00000000 <HR8002_LOCAL_PEAK_DEAD_FRM_THR>:
   0:	f8a0 1066 	strh.w	r1, [r0, #102]	; 0x66
   4:	4770      	bx	lr

Disassembly of section i.HR8002_LOCAL_PEAK_DIFF_THR:

00000000 <HR8002_LOCAL_PEAK_DIFF_THR>:
   0:	f8a0 1064 	strh.w	r1, [r0, #100]	; 0x64
   4:	4770      	bx	lr

Disassembly of section i.HR8002_LOCAL_SIGNAL_GRADE_HR2LOW_FRM_THR:

00000000 <HR8002_LOCAL_SIGNAL_GRADE_HR2LOW_FRM_THR>:
   0:	f8a0 106a 	strh.w	r1, [r0, #106]	; 0x6a
   4:	4770      	bx	lr

Disassembly of section i.HR8002_Set_Ch_Select:

00000000 <HR8002_Set_Ch_Select>:
   0:	f8a0 10c0 	strh.w	r1, [r0, #192]	; 0xc0
   4:	4770      	bx	lr

Disassembly of section i.HR8002_Set_Default_Hr_Out_in10s:

00000000 <HR8002_Set_Default_Hr_Out_in10s>:
   0:	f8a0 10a0 	strh.w	r1, [r0, #160]	; 0xa0
   4:	4770      	bx	lr

Disassembly of section i.HR8002_Set_Dynamic_Hr_Model_Diff_Idx_Thr:

00000000 <HR8002_Set_Dynamic_Hr_Model_Diff_Idx_Thr>:
   0:	f8a0 104a 	strh.w	r1, [r0, #74]	; 0x4a
   4:	4770      	bx	lr

Disassembly of section i.HR8002_Set_En_Chk_Hq_3x_ppg:

00000000 <HR8002_Set_En_Chk_Hq_3x_ppg>:
   0:	f880 10d2 	strb.w	r1, [r0, #210]	; 0xd2
   4:	4770      	bx	lr

Disassembly of section i.HR8002_Set_En_Chk_Hr_Gt_Motion:

00000000 <HR8002_Set_En_Chk_Hr_Gt_Motion>:
   0:	f880 1094 	strb.w	r1, [r0, #148]	; 0x94
   4:	4770      	bx	lr

Disassembly of section i.HR8002_Set_En_Force_Hr_Out_in10s:

00000000 <HR8002_Set_En_Force_Hr_Out_in10s>:
   0:	f880 109e 	strb.w	r1, [r0, #158]	; 0x9e
   4:	4770      	bx	lr

Disassembly of section i.HR8002_Set_En_Global_First_Peak_Track:

00000000 <HR8002_Set_En_Global_First_Peak_Track>:
   0:	f880 109a 	strb.w	r1, [r0, #154]	; 0x9a
   4:	4770      	bx	lr

Disassembly of section i.HR8002_Set_En_Half_Hr_Chk:

00000000 <HR8002_Set_En_Half_Hr_Chk>:
   0:	f880 10cb 	strb.w	r1, [r0, #203]	; 0xcb
   4:	4770      	bx	lr

Disassembly of section i.HR8002_Set_En_Hand_Clap:

00000000 <HR8002_Set_En_Hand_Clap>:
   0:	f880 10c9 	strb.w	r1, [r0, #201]	; 0xc9
   4:	4770      	bx	lr

Disassembly of section i.HR8002_Set_En_Hi_Quality_Hr_Jmp:

00000000 <HR8002_Set_En_Hi_Quality_Hr_Jmp>:
   0:	f880 1095 	strb.w	r1, [r0, #149]	; 0x95
   4:	4770      	bx	lr

Disassembly of section i.HR8002_Set_En_Jafmi:

00000000 <HR8002_Set_En_Jafmi>:
   0:	f880 10d4 	strb.w	r1, [r0, #212]	; 0xd4
   4:	4770      	bx	lr

Disassembly of section i.HR8002_Set_En_Judge_Walk:

00000000 <HR8002_Set_En_Judge_Walk>:
   0:	f880 1093 	strb.w	r1, [r0, #147]	; 0x93
   4:	4770      	bx	lr

Disassembly of section i.HR8002_Set_En_LWPS:

00000000 <HR8002_Set_En_LWPS>:
   0:	f880 1092 	strb.w	r1, [r0, #146]	; 0x92
   4:	4770      	bx	lr

Disassembly of section i.HR8002_Set_En_Local_First_Peak_Track:

00000000 <HR8002_Set_En_Local_First_Peak_Track>:
   0:	f880 1097 	strb.w	r1, [r0, #151]	; 0x97
   4:	4770      	bx	lr

Disassembly of section i.HR8002_Set_En_MA_Walk:

00000000 <HR8002_Set_En_MA_Walk>:
   0:	f880 10c8 	strb.w	r1, [r0, #200]	; 0xc8
   4:	4770      	bx	lr

Disassembly of section i.HR8002_Set_En_Non_Motion_First_Peak_Track:

00000000 <HR8002_Set_En_Non_Motion_First_Peak_Track>:
   0:	f880 10cc 	strb.w	r1, [r0, #204]	; 0xcc
   4:	4770      	bx	lr

Disassembly of section i.HR8002_Set_En_Nor_Pre_Diff_Nor:

00000000 <HR8002_Set_En_Nor_Pre_Diff_Nor>:
   0:	f880 10ca 	strb.w	r1, [r0, #202]	; 0xca
   4:	4770      	bx	lr

Disassembly of section i.HR8002_Set_En_Post_Hr_Process:

00000000 <HR8002_Set_En_Post_Hr_Process>:
   0:	f880 10d3 	strb.w	r1, [r0, #211]	; 0xd3
   4:	4770      	bx	lr

Disassembly of section i.HR8002_Set_En_Split_Motion_Peak:

00000000 <HR8002_Set_En_Split_Motion_Peak>:
   0:	f880 1096 	strb.w	r1, [r0, #150]	; 0x96
   4:	4770      	bx	lr

Disassembly of section i.HR8002_Set_En_Time_Domain_Confirm:

00000000 <HR8002_Set_En_Time_Domain_Confirm>:
   0:	f880 10ec 	strb.w	r1, [r0, #236]	; 0xec
   4:	4770      	bx	lr

Disassembly of section i.HR8002_Set_First_Hr_6s:

00000000 <HR8002_Set_First_Hr_6s>:
   0:	f880 1089 	strb.w	r1, [r0, #137]	; 0x89
   4:	2901      	cmp	r1, #1
   6:	d003      	beq.n	10 <HR8002_Set_First_Hr_6s+0x10>
   8:	2128      	movs	r1, #40	; 0x28
   a:	f8c0 10c4 	str.w	r1, [r0, #196]	; 0xc4
   e:	4770      	bx	lr
  10:	2114      	movs	r1, #20
  12:	e7fa      	b.n	a <HR8002_Set_First_Hr_6s+0xa>

Disassembly of section i.HR8002_Set_First_Hr_Half_1x_Energy_Thr:

00000000 <HR8002_Set_First_Hr_Half_1x_Energy_Thr>:
   0:	ed80 0a29 	vstr	s0, [r0, #164]	; 0xa4
   4:	4770      	bx	lr

Disassembly of section i.HR8002_Set_First_Hr_Mems_Quality_Thr:

00000000 <HR8002_Set_First_Hr_Mems_Quality_Thr>:
   0:	ed80 0a1e 	vstr	s0, [r0, #120]	; 0x78
   4:	4770      	bx	lr

Disassembly of section i.HR8002_Set_First_Hr_Multiple_Offset_Mems_Thr:

00000000 <HR8002_Set_First_Hr_Multiple_Offset_Mems_Thr>:
   0:	f8a0 1074 	strh.w	r1, [r0, #116]	; 0x74
   4:	4770      	bx	lr

Disassembly of section i.HR8002_Set_First_Hr_Ppg_Quality_Thr:

00000000 <HR8002_Set_First_Hr_Ppg_Quality_Thr>:
   0:	ed80 0a1f 	vstr	s0, [r0, #124]	; 0x7c
   4:	4770      	bx	lr

Disassembly of section i.HR8002_Set_First_Hr_in_Motion_Flag:

00000000 <HR8002_Set_First_Hr_in_Motion_Flag>:
   0:	f880 1076 	strb.w	r1, [r0, #118]	; 0x76
   4:	4770      	bx	lr

Disassembly of section i.HR8002_Set_Flag_Limit_Hr_Lb:

00000000 <HR8002_Set_Flag_Limit_Hr_Lb>:
   0:	f880 1102 	strb.w	r1, [r0, #258]	; 0x102
   4:	4770      	bx	lr

Disassembly of section i.HR8002_Set_Flag_Limit_Hr_Ub:

00000000 <HR8002_Set_Flag_Limit_Hr_Ub>:
   0:	f880 10fe 	strb.w	r1, [r0, #254]	; 0xfe
   4:	4770      	bx	lr

Disassembly of section i.HR8002_Set_Force_Out_Sample_Count_10s:

00000000 <HR8002_Set_Force_Out_Sample_Count_10s>:
   0:	f8a0 10fc 	strh.w	r1, [r0, #252]	; 0xfc
   4:	4770      	bx	lr

Disassembly of section i.HR8002_Set_GRP_TRACK_GQ_MOTION_IDX_HI_RATIO:

00000000 <HR8002_Set_GRP_TRACK_GQ_MOTION_IDX_HI_RATIO>:
   0:	ed80 0a17 	vstr	s0, [r0, #92]	; 0x5c
   4:	4770      	bx	lr

Disassembly of section i.HR8002_Set_GRP_TRACK_GQ_MOTION_IDX_LO_RATIO:

00000000 <HR8002_Set_GRP_TRACK_GQ_MOTION_IDX_LO_RATIO>:
   0:	ed80 0a18 	vstr	s0, [r0, #96]	; 0x60
   4:	4770      	bx	lr

Disassembly of section i.HR8002_Set_Global_First_Peak_Frm_Alive_Thr:

00000000 <HR8002_Set_Global_First_Peak_Frm_Alive_Thr>:
   0:	f8a0 109c 	strh.w	r1, [r0, #156]	; 0x9c
   4:	4770      	bx	lr

Disassembly of section i.HR8002_Set_Grp_Track_Diff_Hi_Thr:

00000000 <HR8002_Set_Grp_Track_Diff_Hi_Thr>:
   0:	f8a0 1042 	strh.w	r1, [r0, #66]	; 0x42
   4:	4770      	bx	lr

Disassembly of section i.HR8002_Set_Grp_Track_Diff_Lo_Thr:

00000000 <HR8002_Set_Grp_Track_Diff_Lo_Thr>:
   0:	f8a0 1040 	strh.w	r1, [r0, #64]	; 0x40
   4:	4770      	bx	lr

Disassembly of section i.HR8002_Set_Grp_Track_Eng_Ratio_Thr:

00000000 <HR8002_Set_Grp_Track_Eng_Ratio_Thr>:
   0:	ed80 0a0f 	vstr	s0, [r0, #60]	; 0x3c
   4:	4770      	bx	lr

Disassembly of section i.HR8002_Set_Gsensor_Mode:

00000000 <HR8002_Set_Gsensor_Mode>:
   0:	2201      	movs	r2, #1
   2:	8041      	strh	r1, [r0, #2]
   4:	408a      	lsls	r2, r1
   6:	b211      	sxth	r1, r2
   8:	f8a0 10ae 	strh.w	r1, [r0, #174]	; 0xae
   c:	2296      	movs	r2, #150	; 0x96
   e:	fb92 f1f1 	sdiv	r1, r2, r1
  12:	eb01 72d1 	add.w	r2, r1, r1, lsr #31
  16:	1052      	asrs	r2, r2, #1
  18:	60c1      	str	r1, [r0, #12]
  1a:	e9c0 122c 	strd	r1, r2, [r0, #176]	; 0xb0
  1e:	f9b0 205a 	ldrsh.w	r2, [r0, #90]	; 0x5a
  22:	4351      	muls	r1, r2
  24:	f8c0 10b8 	str.w	r1, [r0, #184]	; 0xb8
  28:	4770      	bx	lr

Disassembly of section i.HR8002_Set_Harmonic_Diff_Thr:

00000000 <HR8002_Set_Harmonic_Diff_Thr>:
   0:	8201      	strh	r1, [r0, #16]
   2:	4770      	bx	lr

Disassembly of section i.HR8002_Set_Harmonic_Motion_Diff_Thr:

00000000 <HR8002_Set_Harmonic_Motion_Diff_Thr>:
   0:	f8a0 1048 	strh.w	r1, [r0, #72]	; 0x48
   4:	4770      	bx	lr

Disassembly of section i.HR8002_Set_Hr_Daily_Dn_Range_Thr:

00000000 <HR8002_Set_Hr_Daily_Dn_Range_Thr>:
   0:	f8a0 1050 	strh.w	r1, [r0, #80]	; 0x50
   4:	4770      	bx	lr

Disassembly of section i.HR8002_Set_Hr_Daily_Hi_Thr:

00000000 <HR8002_Set_Hr_Daily_Hi_Thr>:
   0:	f8a0 104c 	strh.w	r1, [r0, #76]	; 0x4c
   4:	4770      	bx	lr

Disassembly of section i.HR8002_Set_Hr_Daily_Lo_Thr:

00000000 <HR8002_Set_Hr_Daily_Lo_Thr>:
   0:	f8a0 104e 	strh.w	r1, [r0, #78]	; 0x4e
   4:	4770      	bx	lr

Disassembly of section i.HR8002_Set_Hr_Daily_Up_Range_Thr:

00000000 <HR8002_Set_Hr_Daily_Up_Range_Thr>:
   0:	f8a0 1052 	strh.w	r1, [r0, #82]	; 0x52
   4:	4770      	bx	lr

Disassembly of section i.HR8002_Set_Hr_In_Motion_Search_End:

00000000 <HR8002_Set_Hr_In_Motion_Search_End>:
   0:	f8a0 10aa 	strh.w	r1, [r0, #170]	; 0xaa
   4:	4770      	bx	lr

Disassembly of section i.HR8002_Set_Hr_In_Motion_Search_St:

00000000 <HR8002_Set_Hr_In_Motion_Search_St>:
   0:	f8a0 10a8 	strh.w	r1, [r0, #168]	; 0xa8
   4:	4770      	bx	lr

Disassembly of section i.HR8002_Set_Hr_Model_Progress_Ratio:

00000000 <HR8002_Set_Hr_Model_Progress_Ratio>:
   0:	ed80 0a0a 	vstr	s0, [r0, #40]	; 0x28
   4:	4770      	bx	lr

Disassembly of section i.HR8002_Set_Hr_Model_Time_Const:

00000000 <HR8002_Set_Hr_Model_Time_Const>:
   0:	84c1      	strh	r1, [r0, #38]	; 0x26
   2:	4770      	bx	lr

Disassembly of section i.HR8002_Set_Hr_Too_Low_Count_Thr:

00000000 <HR8002_Set_Hr_Too_Low_Count_Thr>:
   0:	8241      	strh	r1, [r0, #18]
   2:	4770      	bx	lr

Disassembly of section i.HR8002_Set_Hr_Too_Low_Idx:

00000000 <HR8002_Set_Hr_Too_Low_Idx>:
   0:	f8a0 1090 	strh.w	r1, [r0, #144]	; 0x90
   4:	4770      	bx	lr

Disassembly of section i.HR8002_Set_IIR_LP:

00000000 <HR8002_Set_IIR_LP>:
   0:	ed80 0a1b 	vstr	s0, [r0, #108]	; 0x6c
   4:	f642 0158 	movw	r1, #10328	; 0x2858
   8:	4408      	add	r0, r1
   a:	f7ff bffe 	b.w	0 <HR_Init_IIR_LP_Filter>

Disassembly of section i.HR8002_Set_IIR_Smooth_Pred:

00000000 <HR8002_Set_IIR_Smooth_Pred>:
   0:	ed80 0a1c 	vstr	s0, [r0, #112]	; 0x70
   4:	f642 0164 	movw	r1, #10340	; 0x2864
   8:	4408      	add	r0, r1
   a:	f7ff bffe 	b.w	0 <HR_Init_Smooth_Pred_Process>

Disassembly of section i.HR8002_Set_Init_Walk_Hr:

00000000 <HR8002_Set_Init_Walk_Hr>:
   0:	f8a0 108a 	strh.w	r1, [r0, #138]	; 0x8a
   4:	4770      	bx	lr

Disassembly of section i.HR8002_Set_Jafmi_Motion_Idx_Thr:

00000000 <HR8002_Set_Jafmi_Motion_Idx_Thr>:
   0:	f8a0 10fa 	strh.w	r1, [r0, #250]	; 0xfa
   4:	4770      	bx	lr

Disassembly of section i.HR8002_Set_Limit_Hr_Lb:

00000000 <HR8002_Set_Limit_Hr_Lb>:
   0:	f8a0 1104 	strh.w	r1, [r0, #260]	; 0x104
   4:	4770      	bx	lr

Disassembly of section i.HR8002_Set_Limit_Hr_Ub:

00000000 <HR8002_Set_Limit_Hr_Ub>:
   0:	f8a0 1100 	strh.w	r1, [r0, #256]	; 0x100
   4:	4770      	bx	lr

Disassembly of section i.HR8002_Set_Local_First_Peak_Frm_Alive_Thr:

00000000 <HR8002_Set_Local_First_Peak_Frm_Alive_Thr>:
   0:	f8a0 1098 	strh.w	r1, [r0, #152]	; 0x98
   4:	4770      	bx	lr

Disassembly of section i.HR8002_Set_Local_Peak_Search_Range:

00000000 <HR8002_Set_Local_Peak_Search_Range>:
   0:	8581      	strh	r1, [r0, #44]	; 0x2c
   2:	4770      	bx	lr

Disassembly of section i.HR8002_Set_Local_Search_Diff_Hi:

00000000 <HR8002_Set_Local_Search_Diff_Hi>:
   0:	8601      	strh	r1, [r0, #48]	; 0x30
   2:	4770      	bx	lr

Disassembly of section i.HR8002_Set_Local_Search_Diff_Lo:

00000000 <HR8002_Set_Local_Search_Diff_Lo>:
   0:	85c1      	strh	r1, [r0, #46]	; 0x2e
   2:	4770      	bx	lr

Disassembly of section i.HR8002_Set_Mn_Mask_Freq_Diff_Idx:

00000000 <HR8002_Set_Mn_Mask_Freq_Diff_Idx>:
   0:	82c1      	strh	r1, [r0, #22]
   2:	4770      	bx	lr

Disassembly of section i.HR8002_Set_Motion_Idx_Max_Thr:

00000000 <HR8002_Set_Motion_Idx_Max_Thr>:
   0:	8441      	strh	r1, [r0, #34]	; 0x22
   2:	4770      	bx	lr

Disassembly of section i.HR8002_Set_Motion_Idx_Min_Thr:

00000000 <HR8002_Set_Motion_Idx_Min_Thr>:
   0:	8481      	strh	r1, [r0, #36]	; 0x24
   2:	4770      	bx	lr

Disassembly of section i.HR8002_Set_Motion_Jmp_Diff_Idx_Thr:

00000000 <HR8002_Set_Motion_Jmp_Diff_Idx_Thr>:
   0:	8381      	strh	r1, [r0, #28]
   2:	4770      	bx	lr

Disassembly of section i.HR8002_Set_Motion_Rms_Gs_Thr:

00000000 <HR8002_Set_Motion_Rms_Gs_Thr>:
   0:	eb01 72d1 	add.w	r2, r1, r1, lsr #31
   4:	1052      	asrs	r2, r2, #1
   6:	60c1      	str	r1, [r0, #12]
   8:	e9c0 122c 	strd	r1, r2, [r0, #176]	; 0xb0
   c:	f8b0 205a 	ldrh.w	r2, [r0, #90]	; 0x5a
  10:	fb11 f102 	smulbb	r1, r1, r2
  14:	f8c0 10b8 	str.w	r1, [r0, #184]	; 0xb8
  18:	4770      	bx	lr

Disassembly of section i.HR8002_Set_No_Move_Jmp_Diff_Idx:

00000000 <HR8002_Set_No_Move_Jmp_Diff_Idx>:
   0:	8281      	strh	r1, [r0, #20]
   2:	4770      	bx	lr

Disassembly of section i.HR8002_Set_Non_Motion_First_Peak_Alive_Frm_Thr:

00000000 <HR8002_Set_Non_Motion_First_Peak_Alive_Frm_Thr>:
   0:	f8a0 10ce 	strh.w	r1, [r0, #206]	; 0xce
   4:	4770      	bx	lr

Disassembly of section i.HR8002_Set_PPG_Ch_Num_Is_IR:

00000000 <HR8002_Set_PPG_Ch_Num_Is_IR>:
   0:	b510      	push	{r4, lr}
   2:	8081      	strh	r1, [r0, #4]
   4:	1a89      	subs	r1, r1, r2
   6:	f8a0 10bc 	strh.w	r1, [r0, #188]	; 0xbc
   a:	f8a0 10be 	strh.w	r1, [r0, #190]	; 0xbe
   e:	7182      	strb	r2, [r0, #6]
  10:	2200      	movs	r2, #0
  12:	4611      	mov	r1, r2
  14:	e00d      	b.n	32 <HR8002_Set_PPG_Ch_Num_Is_IR+0x32>
  16:	bf00      	nop
  18:	eb00 0481 	add.w	r4, r0, r1, lsl #2
  1c:	eb00 0382 	add.w	r3, r0, r2, lsl #2
  20:	f504 5400 	add.w	r4, r4, #8192	; 0x2000
  24:	1c49      	adds	r1, r1, #1
  26:	f503 7384 	add.w	r3, r3, #264	; 0x108
  2a:	b209      	sxth	r1, r1
  2c:	3250      	adds	r2, #80	; 0x50
  2e:	f8c4 35ac 	str.w	r3, [r4, #1452]	; 0x5ac
  32:	f9b0 30bc 	ldrsh.w	r3, [r0, #188]	; 0xbc
  36:	428b      	cmp	r3, r1
  38:	dcee      	bgt.n	18 <HR8002_Set_PPG_Ch_Num_Is_IR+0x18>
  3a:	eb00 0182 	add.w	r1, r0, r2, lsl #2
  3e:	f500 5000 	add.w	r0, r0, #8192	; 0x2000
  42:	f501 7184 	add.w	r1, r1, #264	; 0x108
  46:	f8c0 15b4 	str.w	r1, [r0, #1460]	; 0x5b4
  4a:	bd10      	pop	{r4, pc}

Disassembly of section i.HR8002_Set_PPG_IsAuto_IsTag_Is8002Pattern:

00000000 <HR8002_Set_PPG_IsAuto_IsTag_Is8002Pattern>:
   0:	f800 1f86 	strb.w	r1, [r0, #134]!
   4:	7042      	strb	r2, [r0, #1]
   6:	7083      	strb	r3, [r0, #2]
   8:	4770      	bx	lr

Disassembly of section i.HR8002_Set_Ppg_Diff_Normalize_len:

00000000 <HR8002_Set_Ppg_Diff_Normalize_len>:
   0:	f880 10d1 	strb.w	r1, [r0, #209]	; 0xd1
   4:	4770      	bx	lr

Disassembly of section i.HR8002_Set_Ppg_Normalize_len:

00000000 <HR8002_Set_Ppg_Normalize_len>:
   0:	f880 10d0 	strb.w	r1, [r0, #208]	; 0xd0
   4:	4770      	bx	lr

Disassembly of section i.HR8002_Set_Ppg_Spec_Std_Mean_Thr:

00000000 <HR8002_Set_Ppg_Spec_Std_Mean_Thr>:
   0:	ed80 0a0d 	vstr	s0, [r0, #52]	; 0x34
   4:	4770      	bx	lr

Disassembly of section i.HR8002_Set_Reg_Shake_Count_Mask_Thr:

00000000 <HR8002_Set_Reg_Shake_Count_Mask_Thr>:
   0:	8301      	strh	r1, [r0, #24]
   2:	4770      	bx	lr

Disassembly of section i.HR8002_Set_Reg_Shake_Est_Motion_Idx_Const:

00000000 <HR8002_Set_Reg_Shake_Est_Motion_Idx_Const>:
   0:	f8a0 1058 	strh.w	r1, [r0, #88]	; 0x58
   4:	4770      	bx	lr

Disassembly of section i.HR8002_Set_Reg_Shake_Est_Motion_Idx_Count_Thr:

00000000 <HR8002_Set_Reg_Shake_Est_Motion_Idx_Count_Thr>:
   0:	f8a0 1054 	strh.w	r1, [r0, #84]	; 0x54
   4:	4770      	bx	lr

Disassembly of section i.HR8002_Set_Reg_Shake_Mems_Diff_Idx_Thr:

00000000 <HR8002_Set_Reg_Shake_Mems_Diff_Idx_Thr>:
   0:	8341      	strh	r1, [r0, #26]
   2:	4770      	bx	lr

Disassembly of section i.HR8002_Set_Reg_Shake_Motion_Idx_Rms_Gs_Time:

00000000 <HR8002_Set_Reg_Shake_Motion_Idx_Rms_Gs_Time>:
   0:	f8a0 1056 	strh.w	r1, [r0, #86]	; 0x56
   4:	4770      	bx	lr

Disassembly of section i.HR8002_Set_Reg_Shake_Rms_Gs_Time:

00000000 <HR8002_Set_Reg_Shake_Rms_Gs_Time>:
   0:	f8a0 105a 	strh.w	r1, [r0, #90]	; 0x5a
   4:	68c2      	ldr	r2, [r0, #12]
   6:	434a      	muls	r2, r1
   8:	f8c0 20b8 	str.w	r2, [r0, #184]	; 0xb8
   c:	4770      	bx	lr

Disassembly of section i.HR8002_Set_Reserve_Peak_Ratio_Thr:

00000000 <HR8002_Set_Reserve_Peak_Ratio_Thr>:
   0:	ed80 0a3c 	vstr	s0, [r0, #240]	; 0xf0
   4:	4770      	bx	lr

Disassembly of section i.HR8002_Set_Reset_Hr_To_Hi_Thr:

00000000 <HR8002_Set_Reset_Hr_To_Hi_Thr>:
   0:	8701      	strh	r1, [r0, #56]	; 0x38
   2:	4770      	bx	lr

Disassembly of section i.HR8002_Set_STRIIV_PARAMETER:

00000000 <HR8002_Set_STRIIV_PARAMETER>:
   0:	2101      	movs	r1, #1
   2:	f880 1106 	strb.w	r1, [r0, #262]	; 0x106
   6:	4770      	bx	lr

Disassembly of section i.HR8002_Set_Sample_Rate:

00000000 <HR8002_Set_Sample_Rate>:
   0:	8001      	strh	r1, [r0, #0]
   2:	2214      	movs	r2, #20
   4:	fb91 f1f2 	sdiv	r1, r1, r2
   8:	f8a0 10ac 	strh.w	r1, [r0, #172]	; 0xac
   c:	4770      	bx	lr

Disassembly of section i.HR8002_Set_Signal_Grade:

00000000 <HR8002_Set_Signal_Grade>:
   0:	8101      	strh	r1, [r0, #8]
   2:	4770      	bx	lr

Disassembly of section i.HR8002_Set_Signal_Grade_Frm_Thr:

00000000 <HR8002_Set_Signal_Grade_Frm_Thr>:
   0:	83c1      	strh	r1, [r0, #30]
   2:	4770      	bx	lr

Disassembly of section i.HR8002_Set_Signal_Grade_Motion_Frm_Thr:

00000000 <HR8002_Set_Signal_Grade_Motion_Frm_Thr>:
   0:	8741      	strh	r1, [r0, #58]	; 0x3a
   2:	4770      	bx	lr

Disassembly of section i.HR8002_Set_Signal_Grade_Rep_Count:

00000000 <HR8002_Set_Signal_Grade_Rep_Count>:
   0:	8401      	strh	r1, [r0, #32]
   2:	4770      	bx	lr

Disassembly of section i.HR8002_Set_Static_HR_DN_IDX:

00000000 <HR8002_Set_Static_HR_DN_IDX>:
   0:	f8a0 1084 	strh.w	r1, [r0, #132]	; 0x84
   4:	4770      	bx	lr

Disassembly of section i.HR8002_Set_Static_HR_UP_IDX:

00000000 <HR8002_Set_Static_HR_UP_IDX>:
   0:	f8a0 1082 	strh.w	r1, [r0, #130]	; 0x82
   4:	4770      	bx	lr

Disassembly of section i.HR8002_Set_Static_Mode:

00000000 <HR8002_Set_Static_Mode>:
   0:	f880 1080 	strb.w	r1, [r0, #128]	; 0x80
   4:	4770      	bx	lr

Disassembly of section i.HR8002_Set_Steady_Motion_Idx_Ratio_Thr:

00000000 <HR8002_Set_Steady_Motion_Idx_Ratio_Thr>:
   0:	ed80 0a11 	vstr	s0, [r0, #68]	; 0x44
   4:	4770      	bx	lr

Disassembly of section i.HR8002_Set_SupportWeakSignalLevelCheck:

00000000 <HR8002_Set_SupportWeakSignalLevelCheck>:
   0:	f880 10f8 	strb.w	r1, [r0, #248]	; 0xf8
   4:	4770      	bx	lr

Disassembly of section i.HR8002_Set_Support_Check_Step_Freq:

00000000 <HR8002_Set_Support_Check_Step_Freq>:
   0:	f880 10f5 	strb.w	r1, [r0, #245]	; 0xf5
   4:	4770      	bx	lr

Disassembly of section i.HR8002_Set_Support_Found_Hr_Idx:

00000000 <HR8002_Set_Support_Found_Hr_Idx>:
   0:	f880 10f6 	strb.w	r1, [r0, #246]	; 0xf6
   4:	4770      	bx	lr

Disassembly of section i.HR8002_Set_Support_Hr_Idx_offset:

00000000 <HR8002_Set_Support_Hr_Idx_offset>:
   0:	f880 10f4 	strb.w	r1, [r0, #244]	; 0xf4
   4:	4770      	bx	lr

Disassembly of section i.HR8002_Set_Support_Signal_Level_Check:

00000000 <HR8002_Set_Support_Signal_Level_Check>:
   0:	f880 10f7 	strb.w	r1, [r0, #247]	; 0xf7
   4:	4770      	bx	lr

Disassembly of section i.HR8002_Set_Walk_Hr_Dn_Idx:

00000000 <HR8002_Set_Walk_Hr_Dn_Idx>:
   0:	f8a0 108e 	strh.w	r1, [r0, #142]	; 0x8e
   4:	4770      	bx	lr

Disassembly of section i.HR8002_Set_Walk_Hr_Up_Idx:

00000000 <HR8002_Set_Walk_Hr_Up_Idx>:
   0:	f8a0 108c 	strh.w	r1, [r0, #140]	; 0x8c
   4:	4770      	bx	lr

Disassembly of section i.HR8002_Set_support_fast_post_hr_idx_flag:

00000000 <HR8002_Set_support_fast_post_hr_idx_flag>:
   0:	f880 1106 	strb.w	r1, [r0, #262]	; 0x106
   4:	4770      	bx	lr

cal_hr.o:     file format elf32-littlearm


Disassembly of section i.Cal_Hr:

00000000 <Cal_Hr>:
   0:	b570      	push	{r4, r5, r6, lr}
   2:	f500 5400 	add.w	r4, r0, #8192	; 0x2000
   6:	2600      	movs	r6, #0
   8:	f884 6b5c 	strb.w	r6, [r4, #2908]	; 0xb5c
   c:	f884 6b82 	strb.w	r6, [r4, #2946]	; 0xb82
  10:	4605      	mov	r5, r0
  12:	f8a4 6f3c 	strh.w	r6, [r4, #3900]	; 0xf3c
  16:	f894 0b11 	ldrb.w	r0, [r4, #2833]	; 0xb11
  1a:	2801      	cmp	r0, #1
  1c:	d102      	bne.n	24 <Cal_Hr+0x24>
  1e:	4628      	mov	r0, r5
  20:	f7ff fffe 	bl	0 <Local_Peak_Search>
  24:	f8d5 10b0 	ldr.w	r1, [r5, #176]	; 0xb0
  28:	f8d4 087c 	ldr.w	r0, [r4, #2172]	; 0x87c
  2c:	eb01 0141 	add.w	r1, r1, r1, lsl #1
  30:	4288      	cmp	r0, r1
  32:	db22      	blt.n	7a <Cal_Hr+0x7a>
  34:	f894 0b81 	ldrb.w	r0, [r4, #2945]	; 0xb81
  38:	2801      	cmp	r0, #1
  3a:	d01e      	beq.n	7a <Cal_Hr+0x7a>
  3c:	f9b4 0f16 	ldrsh.w	r0, [r4, #3862]	; 0xf16
  40:	2800      	cmp	r0, #0
  42:	dd08      	ble.n	56 <Cal_Hr+0x56>
  44:	1ec0      	subs	r0, r0, #3
  46:	b200      	sxth	r0, r0
  48:	f8a4 0f16 	strh.w	r0, [r4, #3862]	; 0xf16
  4c:	2800      	cmp	r0, #0
  4e:	dc00      	bgt.n	52 <Cal_Hr+0x52>
  50:	2000      	movs	r0, #0
  52:	f8a4 0f16 	strh.w	r0, [r4, #3862]	; 0xf16
  56:	4628      	mov	r0, r5
  58:	f7ff fffe 	bl	0 <Chk_If_Hr_Near_Motion>
  5c:	4628      	mov	r0, r5
  5e:	f7ff fffe 	bl	0 <Cal_Hr>
  62:	bf00      	nop
  64:	f894 0ed1 	ldrb.w	r0, [r4, #3793]	; 0xed1
  68:	b1a8      	cbz	r0, 96 <Cal_Hr+0x96>
  6a:	f884 6ed1 	strb.w	r6, [r4, #3793]	; 0xed1
  6e:	bf00      	nop
  70:	f895 0093 	ldrb.w	r0, [r5, #147]	; 0x93
  74:	2801      	cmp	r0, #1
  76:	d012      	beq.n	9e <Cal_Hr+0x9e>
  78:	e01a      	b.n	b0 <Cal_Hr+0xb0>
  7a:	4628      	mov	r0, r5
  7c:	f7ff fffe 	bl	0 <Cal_Hr>
  80:	f8a4 6b0c 	strh.w	r6, [r4, #2828]	; 0xb0c
  84:	f9b4 0f16 	ldrsh.w	r0, [r4, #3862]	; 0xf16
  88:	f5b0 7ffa 	cmp.w	r0, #500	; 0x1f4
  8c:	daea      	bge.n	64 <Cal_Hr+0x64>
  8e:	1c40      	adds	r0, r0, #1
  90:	f8a4 0f16 	strh.w	r0, [r4, #3862]	; 0xf16
  94:	e7e6      	b.n	64 <Cal_Hr+0x64>
  96:	4628      	mov	r0, r5
  98:	f7ff fffe 	bl	0 <Post_Hr_Check>
  9c:	e7e8      	b.n	70 <Cal_Hr+0x70>
  9e:	f894 0ee9 	ldrb.w	r0, [r4, #3817]	; 0xee9
  a2:	b928      	cbnz	r0, b0 <Cal_Hr+0xb0>
  a4:	f894 0efd 	ldrb.w	r0, [r4, #3837]	; 0xefd
  a8:	b910      	cbnz	r0, b0 <Cal_Hr+0xb0>
  aa:	4628      	mov	r0, r5
  ac:	f7ff fffe 	bl	0 <Judge_If_Walk>
  b0:	f895 0095 	ldrb.w	r0, [r5, #149]	; 0x95
  b4:	2801      	cmp	r0, #1
  b6:	d102      	bne.n	be <Cal_Hr+0xbe>
  b8:	4628      	mov	r0, r5
  ba:	f7ff fffe 	bl	0 <High_Quality_Hr_Jump>
  be:	4628      	mov	r0, r5
  c0:	f7ff fffe 	bl	0 <Constrain_Too_LowHigh>
  c4:	4628      	mov	r0, r5
  c6:	f7ff fffe 	bl	0 <Cal_Hr>
  ca:	f9b4 0b12 	ldrsh.w	r0, [r4, #2834]	; 0xb12
  ce:	f9b4 1b14 	ldrsh.w	r1, [r4, #2836]	; 0xb14
  d2:	4288      	cmp	r0, r1
  d4:	d10b      	bne.n	ee <Cal_Hr+0xee>
  d6:	f8b4 0b84 	ldrh.w	r0, [r4, #2948]	; 0xb84
  da:	1c40      	adds	r0, r0, #1
  dc:	b200      	sxth	r0, r0
  de:	f8a4 0b84 	strh.w	r0, [r4, #2948]	; 0xb84
  e2:	280a      	cmp	r0, #10
  e4:	db05      	blt.n	f2 <Cal_Hr+0xf2>
  e6:	200a      	movs	r0, #10
  e8:	f8a4 0b84 	strh.w	r0, [r4, #2948]	; 0xb84
  ec:	e001      	b.n	f2 <Cal_Hr+0xf2>
  ee:	f8a4 6b84 	strh.w	r6, [r4, #2948]	; 0xb84
  f2:	f895 00cc 	ldrb.w	r0, [r5, #204]	; 0xcc
  f6:	2801      	cmp	r0, #1
  f8:	d102      	bne.n	100 <Cal_Hr+0x100>
  fa:	4628      	mov	r0, r5
  fc:	f7ff fffe 	bl	0 <Non_Motion_First_Peak_Alive_Tracking>
 100:	f895 00f6 	ldrb.w	r0, [r5, #246]	; 0xf6
 104:	2801      	cmp	r0, #1
 106:	d102      	bne.n	10e <Cal_Hr+0x10e>
 108:	4628      	mov	r0, r5
 10a:	f7ff fffe 	bl	0 <Cal_Hr>
 10e:	f895 10d3 	ldrb.w	r1, [r5, #211]	; 0xd3
 112:	f505 5030 	add.w	r0, r5, #11264	; 0x2c00
 116:	2901      	cmp	r1, #1
 118:	d114      	bne.n	144 <Cal_Hr+0x144>
 11a:	ed90 0aab 	vldr	s0, [r0, #684]	; 0x2ac
 11e:	edd5 0a0d 	vldr	s1, [r5, #52]	; 0x34
 122:	eeb4 0ae0 	vcmpe.f32	s0, s1
 126:	eef1 fa10 	vmrs	APSR_nzcv, fpscr
 12a:	dc08      	bgt.n	13e <Cal_Hr+0x13e>
 12c:	4a22      	ldr	r2, [pc, #136]	; (1b8 <Cal_Hr+0x1b8>)
 12e:	f8d0 12bc 	ldr.w	r1, [r0, #700]	; 0x2bc
 132:	4291      	cmp	r1, r2
 134:	dc03      	bgt.n	13e <Cal_Hr+0x13e>
 136:	f895 1106 	ldrb.w	r1, [r5, #262]	; 0x106
 13a:	2901      	cmp	r1, #1
 13c:	d102      	bne.n	144 <Cal_Hr+0x144>
 13e:	f894 1f1c 	ldrb.w	r1, [r4, #3868]	; 0xf1c
 142:	b161      	cbz	r1, 15e <Cal_Hr+0x15e>
 144:	f9b4 1b12 	ldrsh.w	r1, [r4, #2834]	; 0xb12
 148:	ee00 1a10 	vmov	s0, r1
 14c:	eeb8 0ac0 	vcvt.f32.s32	s0, s0
 150:	ed80 0ac0 	vstr	s0, [r0, #768]	; 0x300
 154:	f895 00f4 	ldrb.w	r0, [r5, #244]	; 0xf4
 158:	2801      	cmp	r0, #1
 15a:	d004      	beq.n	166 <Cal_Hr+0x166>
 15c:	e006      	b.n	16c <Cal_Hr+0x16c>
 15e:	4628      	mov	r0, r5
 160:	f7ff fffe 	bl	0 <Cal_Hr>
 164:	e7f6      	b.n	154 <Cal_Hr+0x154>
 166:	4628      	mov	r0, r5
 168:	f7ff fffe 	bl	0 <Cal_Hr>
 16c:	f895 00f5 	ldrb.w	r0, [r5, #245]	; 0xf5
 170:	2801      	cmp	r0, #1
 172:	d105      	bne.n	180 <Cal_Hr+0x180>
 174:	f642 3012 	movw	r0, #11026	; 0x2b12
 178:	1829      	adds	r1, r5, r0
 17a:	4628      	mov	r0, r5
 17c:	f7ff fffe 	bl	0 <check_hr_step_frequency_mixed>
 180:	4628      	mov	r0, r5
 182:	f7ff fffe 	bl	0 <Cal_Hr>
 186:	f895 00f7 	ldrb.w	r0, [r5, #247]	; 0xf7
 18a:	2801      	cmp	r0, #1
 18c:	d102      	bne.n	194 <Cal_Hr+0x194>
 18e:	4628      	mov	r0, r5
 190:	f7ff fffe 	bl	0 <check_signal_level>
 194:	4628      	mov	r0, r5
 196:	f7ff fffe 	bl	0 <Cal_Hr>
 19a:	f894 0b11 	ldrb.w	r0, [r4, #2833]	; 0xb11
 19e:	2801      	cmp	r0, #1
 1a0:	d108      	bne.n	1b4 <Cal_Hr+0x1b4>
 1a2:	f895 00d4 	ldrb.w	r0, [r5, #212]	; 0xd4
 1a6:	2801      	cmp	r0, #1
 1a8:	d104      	bne.n	1b4 <Cal_Hr+0x1b4>
 1aa:	4628      	mov	r0, r5
 1ac:	e8bd 4070 	ldmia.w	sp!, {r4, r5, r6, lr}
 1b0:	f7ff bffe 	b.w	0 <Cal_Hr>
 1b4:	bd70      	pop	{r4, r5, r6, pc}
 1b6:	0000      	.short	0x0000
 1b8:	3f333333 	.word	0x3f333333

Disassembly of section i.Cal_Hr_Bike:

00000000 <Cal_Hr_Bike>:
   0:	b570      	push	{r4, r5, r6, lr}
   2:	f500 5400 	add.w	r4, r0, #8192	; 0x2000
   6:	4605      	mov	r5, r0
   8:	f894 0b52 	ldrb.w	r0, [r4, #2898]	; 0xb52
   c:	2801      	cmp	r0, #1
   e:	d15b      	bne.n	c8 <Cal_Hr_Bike+0xc8>
  10:	f8d4 0b88 	ldr.w	r0, [r4, #2952]	; 0xb88
  14:	2800      	cmp	r0, #0
  16:	d157      	bne.n	c8 <Cal_Hr_Bike+0xc8>
  18:	f642 60bc 	movw	r0, #11964	; 0x2ebc
  1c:	5940      	ldr	r0, [r0, r5]
  1e:	f1b0 5f7d 	cmp.w	r0, #1061158912	; 0x3f400000
  22:	da51      	bge.n	c8 <Cal_Hr_Bike+0xc8>
  24:	f9b4 09e8 	ldrsh.w	r0, [r4, #2536]	; 0x9e8
  28:	2803      	cmp	r0, #3
  2a:	db03      	blt.n	34 <Cal_Hr_Bike+0x34>
  2c:	f9b4 0ae4 	ldrsh.w	r0, [r4, #2788]	; 0xae4
  30:	2804      	cmp	r0, #4
  32:	da08      	bge.n	46 <Cal_Hr_Bike+0x46>
  34:	4628      	mov	r0, r5
  36:	f7ff fffe 	bl	0 <Valid_1ch_Check>
  3a:	2801      	cmp	r0, #1
  3c:	d144      	bne.n	c8 <Cal_Hr_Bike+0xc8>
  3e:	f9b4 0ae4 	ldrsh.w	r0, [r4, #2788]	; 0xae4
  42:	2803      	cmp	r0, #3
  44:	db40      	blt.n	c8 <Cal_Hr_Bike+0xc8>
  46:	f9b5 0090 	ldrsh.w	r0, [r5, #144]	; 0x90
  4a:	f9b4 199e 	ldrsh.w	r1, [r4, #2462]	; 0x99e
  4e:	300a      	adds	r0, #10
  50:	4281      	cmp	r1, r0
  52:	dd39      	ble.n	c8 <Cal_Hr_Bike+0xc8>
  54:	ee00 1a10 	vmov	s0, r1
  58:	f9b4 0b14 	ldrsh.w	r0, [r4, #2836]	; 0xb14
  5c:	eeb6 1a08 	vmov.f32	s2, #104	; 0x3f400000  0.750
  60:	eef8 0ac0 	vcvt.f32.s32	s1, s0
  64:	ee00 0a10 	vmov	s0, r0
  68:	eeb8 0ac0 	vcvt.f32.s32	s0, s0
  6c:	ee20 0a01 	vmul.f32	s0, s0, s2
  70:	eef4 0ac0 	vcmpe.f32	s1, s0
  74:	eef1 fa10 	vmrs	APSR_nzcv, fpscr
  78:	dd26      	ble.n	c8 <Cal_Hr_Bike+0xc8>
  7a:	ee00 1a10 	vmov	s0, r1
  7e:	eeb7 1a08 	vmov.f32	s2, #120	; 0x3fc00000  1.5
  82:	eef8 0ac0 	vcvt.f32.s32	s1, s0
  86:	ee00 0a10 	vmov	s0, r0
  8a:	eeb8 0ac0 	vcvt.f32.s32	s0, s0
  8e:	ee20 0a01 	vmul.f32	s0, s0, s2
  92:	eef4 0ac0 	vcmpe.f32	s1, s0
  96:	eef1 fa10 	vmrs	APSR_nzcv, fpscr
  9a:	d215      	bcs.n	c8 <Cal_Hr_Bike+0xc8>
  9c:	f9b4 0abe 	ldrsh.w	r0, [r4, #2750]	; 0xabe
  a0:	1a08      	subs	r0, r1, r0
  a2:	1cc0      	adds	r0, r0, #3
  a4:	2806      	cmp	r0, #6
  a6:	d80f      	bhi.n	c8 <Cal_Hr_Bike+0xc8>
  a8:	4628      	mov	r0, r5
  aa:	f7ff fffe 	bl	0 <Chk_If_Sel_Hr_Good>
  ae:	2801      	cmp	r0, #1
  b0:	d10a      	bne.n	c8 <Cal_Hr_Bike+0xc8>
  b2:	f894 09ce 	ldrb.w	r0, [r4, #2510]	; 0x9ce
  b6:	2800      	cmp	r0, #0
  b8:	d106      	bne.n	c8 <Cal_Hr_Bike+0xc8>
  ba:	f8b4 099e 	ldrh.w	r0, [r4, #2462]	; 0x99e
  be:	f8a4 0b12 	strh.w	r0, [r4, #2834]	; 0xb12
  c2:	2000      	movs	r0, #0
  c4:	f884 0f19 	strb.w	r0, [r4, #3865]	; 0xf19
  c8:	bd70      	pop	{r4, r5, r6, pc}

Disassembly of section i.Cal_Hr_By_Long_Term_Pred:

00000000 <Cal_Hr_By_Long_Term_Pred>:
   0:	e92d 41f0 	stmdb	sp!, {r4, r5, r6, r7, r8, lr}
   4:	f500 5400 	add.w	r4, r0, #8192	; 0x2000
   8:	4605      	mov	r5, r0
   a:	f894 0b51 	ldrb.w	r0, [r4, #2897]	; 0xb51
   e:	2801      	cmp	r0, #1
  10:	d01c      	beq.n	4c <Cal_Hr_By_Long_Term_Pred+0x4c>
  12:	2800      	cmp	r0, #0
  14:	d17d      	bne.n	112 <Cal_Hr_By_Long_Term_Pred+0x112>
  16:	f894 0951 	ldrb.w	r0, [r4, #2385]	; 0x951
  1a:	2801      	cmp	r0, #1
  1c:	d179      	bne.n	112 <Cal_Hr_By_Long_Term_Pred+0x112>
  1e:	f8d4 087c 	ldr.w	r0, [r4, #2172]	; 0x87c
  22:	eeb1 1a08 	vmov.f32	s2, #24	; 0x40c00000  6.0
  26:	ee00 0a10 	vmov	s0, r0
  2a:	eef8 0ac0 	vcvt.f32.s32	s1, s0
  2e:	ed95 0a2c 	vldr	s0, [r5, #176]	; 0xb0
  32:	eeb8 0ac0 	vcvt.f32.s32	s0, s0
  36:	ee20 0a01 	vmul.f32	s0, s0, s2
  3a:	eeb7 1a08 	vmov.f32	s2, #120	; 0x3fc00000  1.5
  3e:	ee20 0a01 	vmul.f32	s0, s0, s2
  42:	eef4 0ac0 	vcmpe.f32	s1, s0
  46:	eef1 fa10 	vmrs	APSR_nzcv, fpscr
  4a:	d269      	bcs.n	120 <Cal_Hr_By_Long_Term_Pred+0x120>
  4c:	2600      	movs	r6, #0
  4e:	e031      	b.n	b4 <Cal_Hr_By_Long_Term_Pred+0xb4>
  50:	ebc6 00c6 	rsb	r0, r6, r6, lsl #3
  54:	ebc0 2006 	rsb	r0, r0, r6, lsl #8
  58:	eb05 0780 	add.w	r7, r5, r0, lsl #2
  5c:	f507 5880 	add.w	r8, r7, #4096	; 0x1000
  60:	f9b4 2b12 	ldrsh.w	r2, [r4, #2834]	; 0xb12
  64:	2300      	movs	r3, #0
  66:	4628      	mov	r0, r5
  68:	f8d8 1dc0 	ldr.w	r1, [r8, #3520]	; 0xdc0
  6c:	f7ff fffe 	bl	0 <Cal_Partial_Spec_Std_Mean>
  70:	2000      	movs	r0, #0
  72:	f9b8 19fe 	ldrsh.w	r1, [r8, #2558]	; 0x9fe
  76:	e00d      	b.n	94 <Cal_Hr_By_Long_Term_Pred+0x94>
  78:	eb07 0240 	add.w	r2, r7, r0, lsl #1
  7c:	f502 5280 	add.w	r2, r2, #4096	; 0x1000
  80:	f9b4 3b12 	ldrsh.w	r3, [r4, #2834]	; 0xb12
  84:	f9b2 29f8 	ldrsh.w	r2, [r2, #2552]	; 0x9f8
  88:	1a9a      	subs	r2, r3, r2
  8a:	1c52      	adds	r2, r2, #1
  8c:	2a02      	cmp	r2, #2
  8e:	d903      	bls.n	98 <Cal_Hr_By_Long_Term_Pred+0x98>
  90:	1c40      	adds	r0, r0, #1
  92:	b200      	sxth	r0, r0
  94:	4281      	cmp	r1, r0
  96:	dcef      	bgt.n	78 <Cal_Hr_By_Long_Term_Pred+0x78>
  98:	ee10 2a10 	vmov	r2, s0
  9c:	f1b2 4f80 	cmp.w	r2, #1073741824	; 0x40000000
  a0:	dc0c      	bgt.n	bc <Cal_Hr_By_Long_Term_Pred+0xbc>
  a2:	4281      	cmp	r1, r0
  a4:	dd04      	ble.n	b0 <Cal_Hr_By_Long_Term_Pred+0xb0>
  a6:	ee10 0a10 	vmov	r0, s0
  aa:	492c      	ldr	r1, [pc, #176]	; (15c <Cal_Hr_By_Long_Term_Pred+0x15c>)
  ac:	4288      	cmp	r0, r1
  ae:	dc05      	bgt.n	bc <Cal_Hr_By_Long_Term_Pred+0xbc>
  b0:	1c76      	adds	r6, r6, #1
  b2:	b236      	sxth	r6, r6
  b4:	f9b5 00bc 	ldrsh.w	r0, [r5, #188]	; 0xbc
  b8:	42b0      	cmp	r0, r6
  ba:	dcc9      	bgt.n	50 <Cal_Hr_By_Long_Term_Pred+0x50>
  bc:	f9b5 00bc 	ldrsh.w	r0, [r5, #188]	; 0xbc
  c0:	42b0      	cmp	r0, r6
  c2:	d12d      	bne.n	120 <Cal_Hr_By_Long_Term_Pred+0x120>
  c4:	f605 35b8 	addw	r5, r5, #3000	; 0xbb8
  c8:	f505 5500 	add.w	r5, r5, #8192	; 0x2000
  cc:	f8b4 1b12 	ldrh.w	r1, [r4, #2834]	; 0xb12
  d0:	f9b4 0b14 	ldrsh.w	r0, [r4, #2836]	; 0xb14
  d4:	ec95 0a02 	vldmia	r5, {s0-s1}
  d8:	1a09      	subs	r1, r1, r0
  da:	b20a      	sxth	r2, r1
  dc:	2100      	movs	r1, #0
  de:	2a06      	cmp	r2, #6
  e0:	ee30 0a60 	vsub.f32	s0, s0, s1
  e4:	eef1 0a00 	vmov.f32	s1, #16	; 0x40800000  4.0
  e8:	dd1c      	ble.n	124 <Cal_Hr_By_Long_Term_Pred+0x124>
  ea:	eeb5 0ac0 	vcmpe.f32	s0, #0.0
  ee:	eef1 fa10 	vmrs	APSR_nzcv, fpscr
  f2:	d215      	bcs.n	120 <Cal_Hr_By_Long_Term_Pred+0x120>
  f4:	ee10 2a10 	vmov	r2, s0
  f8:	f112 5f7e 	cmn.w	r2, #1065353216	; 0x3f800000
  fc:	d926      	bls.n	14c <Cal_Hr_By_Long_Term_Pred+0x14c>
  fe:	ee00 0a10 	vmov	s0, r0
 102:	eeb8 0ac0 	vcvt.f32.s32	s0, s0
 106:	ee30 0a60 	vsub.f32	s0, s0, s1
 10a:	bf00      	nop
 10c:	eebd 0ac0 	vcvt.s32.f32	s0, s0
 110:	e000      	b.n	114 <Cal_Hr_By_Long_Term_Pred+0x114>
 112:	e005      	b.n	120 <Cal_Hr_By_Long_Term_Pred+0x120>
 114:	ee10 0a10 	vmov	r0, s0
 118:	f8a4 0b12 	strh.w	r0, [r4, #2834]	; 0xb12
 11c:	f884 1f19 	strb.w	r1, [r4, #3865]	; 0xf19
 120:	e8bd 81f0 	ldmia.w	sp!, {r4, r5, r6, r7, r8, pc}
 124:	f112 0f06 	cmn.w	r2, #6
 128:	dafa      	bge.n	120 <Cal_Hr_By_Long_Term_Pred+0x120>
 12a:	eeb5 0ac0 	vcmpe.f32	s0, #0.0
 12e:	eef1 fa10 	vmrs	APSR_nzcv, fpscr
 132:	ddf5      	ble.n	120 <Cal_Hr_By_Long_Term_Pred+0x120>
 134:	ee10 2a10 	vmov	r2, s0
 138:	f1b2 4f81 	cmp.w	r2, #1082130432	; 0x40800000
 13c:	dd06      	ble.n	14c <Cal_Hr_By_Long_Term_Pred+0x14c>
 13e:	ee00 0a10 	vmov	s0, r0
 142:	eeb8 0ac0 	vcvt.f32.s32	s0, s0
 146:	ee30 0a20 	vadd.f32	s0, s0, s1
 14a:	e7df      	b.n	10c <Cal_Hr_By_Long_Term_Pred+0x10c>
 14c:	ee00 0a90 	vmov	s1, r0
 150:	eef8 0ae0 	vcvt.f32.s32	s1, s1
 154:	ee30 0a80 	vadd.f32	s0, s1, s0
 158:	e7d8      	b.n	10c <Cal_Hr_By_Long_Term_Pred+0x10c>
 15a:	0000      	.short	0x0000
 15c:	3fcccccd 	.word	0x3fcccccd

Disassembly of section i.Cal_Hr_MA_Walk:

00000000 <Cal_Hr_MA_Walk>:
   0:	b5f0      	push	{r4, r5, r6, r7, lr}
   2:	f500 5100 	add.w	r1, r0, #8192	; 0x2000
   6:	2600      	movs	r6, #0
   8:	f891 2efd 	ldrb.w	r2, [r1, #3837]	; 0xefd
   c:	b1ba      	cbz	r2, 3e <Cal_Hr_MA_Walk+0x3e>
   e:	f891 3b29 	ldrb.w	r3, [r1, #2857]	; 0xb29
  12:	2b01      	cmp	r3, #1
  14:	d02e      	beq.n	74 <Cal_Hr_MA_Walk+0x74>
  16:	f891 3ed0 	ldrb.w	r3, [r1, #3792]	; 0xed0
  1a:	2b01      	cmp	r3, #1
  1c:	d02a      	beq.n	74 <Cal_Hr_MA_Walk+0x74>
  1e:	f8b1 3b1e 	ldrh.w	r3, [r1, #2846]	; 0xb1e
  22:	b33b      	cbz	r3, 74 <Cal_Hr_MA_Walk+0x74>
  24:	2a01      	cmp	r2, #1
  26:	d127      	bne.n	78 <Cal_Hr_MA_Walk+0x78>
  28:	f9b1 2b14 	ldrsh.w	r2, [r1, #2836]	; 0xb14
  2c:	f9b1 3b30 	ldrsh.w	r3, [r1, #2864]	; 0xb30
  30:	1ad3      	subs	r3, r2, r3
  32:	3309      	adds	r3, #9
  34:	2b12      	cmp	r3, #18
  36:	d820      	bhi.n	7a <Cal_Hr_MA_Walk+0x7a>
  38:	f9b1 2b30 	ldrsh.w	r2, [r1, #2864]	; 0xb30
  3c:	e025      	b.n	8a <Cal_Hr_MA_Walk+0x8a>
  3e:	f9b1 2b1e 	ldrsh.w	r2, [r1, #2846]	; 0xb1e
  42:	2a03      	cmp	r2, #3
  44:	db18      	blt.n	78 <Cal_Hr_MA_Walk+0x78>
  46:	f9b1 3b30 	ldrsh.w	r3, [r1, #2864]	; 0xb30
  4a:	2b78      	cmp	r3, #120	; 0x78
  4c:	da14      	bge.n	78 <Cal_Hr_MA_Walk+0x78>
  4e:	f9b1 2b14 	ldrsh.w	r2, [r1, #2836]	; 0xb14
  52:	1ad4      	subs	r4, r2, r3
  54:	2301      	movs	r3, #1
  56:	3409      	adds	r4, #9
  58:	2c12      	cmp	r4, #18
  5a:	d802      	bhi.n	62 <Cal_Hr_MA_Walk+0x62>
  5c:	f881 3efd 	strb.w	r3, [r1, #3837]	; 0xefd
  60:	e7ea      	b.n	38 <Cal_Hr_MA_Walk+0x38>
  62:	f9b1 41c0 	ldrsh.w	r4, [r1, #448]	; 0x1c0
  66:	1b12      	subs	r2, r2, r4
  68:	3209      	adds	r2, #9
  6a:	2a12      	cmp	r2, #18
  6c:	d804      	bhi.n	78 <Cal_Hr_MA_Walk+0x78>
  6e:	f881 3efd 	strb.w	r3, [r1, #3837]	; 0xefd
  72:	e008      	b.n	86 <Cal_Hr_MA_Walk+0x86>
  74:	f881 6efd 	strb.w	r6, [r1, #3837]	; 0xefd
  78:	bdf0      	pop	{r4, r5, r6, r7, pc}
  7a:	f9b1 31c0 	ldrsh.w	r3, [r1, #448]	; 0x1c0
  7e:	1ad3      	subs	r3, r2, r3
  80:	3309      	adds	r3, #9
  82:	2b12      	cmp	r3, #18
  84:	d801      	bhi.n	8a <Cal_Hr_MA_Walk+0x8a>
  86:	f9b1 21c0 	ldrsh.w	r2, [r1, #448]	; 0x1c0
  8a:	f44f 53ee 	mov.w	r3, #7616	; 0x1dc0
  8e:	581c      	ldr	r4, [r3, r0]
  90:	f9b1 3b12 	ldrsh.w	r3, [r1, #2834]	; 0xb12
  94:	f8b0 00bc 	ldrh.w	r0, [r0, #188]	; 0xbc
  98:	f854 5023 	ldr.w	r5, [r4, r3, lsl #2]
  9c:	f854 4022 	ldr.w	r4, [r4, r2, lsl #2]
  a0:	2802      	cmp	r0, #2
  a2:	d107      	bne.n	b4 <Cal_Hr_MA_Walk+0xb4>
  a4:	f8d1 01a4 	ldr.w	r0, [r1, #420]	; 0x1a4
  a8:	f850 7023 	ldr.w	r7, [r0, r3, lsl #2]
  ac:	f850 0022 	ldr.w	r0, [r0, r2, lsl #2]
  b0:	443d      	add	r5, r7
  b2:	4404      	add	r4, r0
  b4:	42a5      	cmp	r5, r4
  b6:	dd0e      	ble.n	d6 <Cal_Hr_MA_Walk+0xd6>
  b8:	f9b1 0b30 	ldrsh.w	r0, [r1, #2864]	; 0xb30
  bc:	eb00 0040 	add.w	r0, r0, r0, lsl #1
  c0:	eb00 74d0 	add.w	r4, r0, r0, lsr #31
  c4:	ebc3 0064 	rsb	r0, r3, r4, asr #1
  c8:	2800      	cmp	r0, #0
  ca:	d501      	bpl.n	d0 <Cal_Hr_MA_Walk+0xd0>
  cc:	eba3 0064 	sub.w	r0, r3, r4, asr #1
  d0:	2806      	cmp	r0, #6
  d2:	dd00      	ble.n	d6 <Cal_Hr_MA_Walk+0xd6>
  d4:	461a      	mov	r2, r3
  d6:	1a98      	subs	r0, r3, r2
  d8:	300e      	adds	r0, #14
  da:	281c      	cmp	r0, #28
  dc:	d8cc      	bhi.n	78 <Cal_Hr_MA_Walk+0x78>
  de:	f8b1 0f3c 	ldrh.w	r0, [r1, #3900]	; 0xf3c
  e2:	2800      	cmp	r0, #0
  e4:	d1c8      	bne.n	78 <Cal_Hr_MA_Walk+0x78>
  e6:	f9b1 0b14 	ldrsh.w	r0, [r1, #2836]	; 0xb14
  ea:	1a1c      	subs	r4, r3, r0
  ec:	1ce4      	adds	r4, r4, #3
  ee:	2c06      	cmp	r4, #6
  f0:	d901      	bls.n	f6 <Cal_Hr_MA_Walk+0xf6>
  f2:	4410      	add	r0, r2
  f4:	e004      	b.n	100 <Cal_Hr_MA_Walk+0x100>
  f6:	f9b1 0b84 	ldrsh.w	r0, [r1, #2948]	; 0xb84
  fa:	2805      	cmp	r0, #5
  fc:	dbbc      	blt.n	78 <Cal_Hr_MA_Walk+0x78>
  fe:	1898      	adds	r0, r3, r2
 100:	1040      	asrs	r0, r0, #1
 102:	f8a1 0b12 	strh.w	r0, [r1, #2834]	; 0xb12
 106:	f881 6f19 	strb.w	r6, [r1, #3865]	; 0xf19
 10a:	bdf0      	pop	{r4, r5, r6, r7, pc}

Disassembly of section i.Cal_Hr_Motion:

00000000 <Cal_Hr_Motion>:
   0:	e92d 4ff0 	stmdb	sp!, {r4, r5, r6, r7, r8, r9, sl, fp, lr}
   4:	4605      	mov	r5, r0
   6:	ed2d 8b02 	vpush	{d8}
   a:	b085      	sub	sp, #20
   c:	2400      	movs	r4, #0
   e:	f642 2bb8 	movw	fp, #10936	; 0x2ab8
  12:	e043      	b.n	9c <Cal_Hr_Motion+0x9c>
  14:	eb04 0644 	add.w	r6, r4, r4, lsl #1
  18:	ebc4 00c4 	rsb	r0, r4, r4, lsl #3
  1c:	1971      	adds	r1, r6, r5
  1e:	ebc0 2004 	rsb	r0, r0, r4, lsl #8
  22:	eb01 030b 	add.w	r3, r1, fp
  26:	eb05 0080 	add.w	r0, r5, r0, lsl #2
  2a:	f641 11f8 	movw	r1, #6648	; 0x19f8
  2e:	1842      	adds	r2, r0, r1
  30:	f500 5880 	add.w	r8, r0, #4096	; 0x1000
  34:	4628      	mov	r0, r5
  36:	f9b8 19fe 	ldrsh.w	r1, [r8, #2558]	; 0x9fe
  3a:	f7ff fffe 	bl	0 <Cal_Hr_Motion>
  3e:	eb05 0786 	add.w	r7, r5, r6, lsl #2
  42:	eb05 0a46 	add.w	sl, r5, r6, lsl #1
  46:	eb05 0984 	add.w	r9, r5, r4, lsl #2
  4a:	f642 21ac 	movw	r1, #10924	; 0x2aac
  4e:	f642 2094 	movw	r0, #10900	; 0x2a94
  52:	f509 5600 	add.w	r6, r9, #8192	; 0x2000
  56:	eb0a 0301 	add.w	r3, sl, r1
  5a:	183a      	adds	r2, r7, r0
  5c:	f9b6 1a8c 	ldrsh.w	r1, [r6, #2700]	; 0xa8c
  60:	4628      	mov	r0, r5
  62:	f7ff fffe 	bl	0 <Cal_Hr_Motion>
  66:	f642 21af 	movw	r1, #10927	; 0x2aaf
  6a:	f642 209a 	movw	r0, #10906	; 0x2a9a
  6e:	eb0a 0301 	add.w	r3, sl, r1
  72:	183a      	adds	r2, r7, r0
  74:	f9b6 1a8e 	ldrsh.w	r1, [r6, #2702]	; 0xa8e
  78:	4628      	mov	r0, r5
  7a:	f7ff fffe 	bl	0 <Cal_Hr_Motion>
  7e:	f642 2294 	movw	r2, #10900	; 0x2a94
  82:	5eba      	ldrsh	r2, [r7, r2]
  84:	2300      	movs	r3, #0
  86:	4628      	mov	r0, r5
  88:	f8d8 1dc0 	ldr.w	r1, [r8, #3520]	; 0xdc0
  8c:	f7ff fffe 	bl	0 <Cal_Partial_Spec_Std_Mean>
  90:	f509 5630 	add.w	r6, r9, #11264	; 0x2c00
  94:	1c64      	adds	r4, r4, #1
  96:	ed86 0aad 	vstr	s0, [r6, #692]	; 0x2b4
  9a:	b224      	sxth	r4, r4
  9c:	f9b5 00bc 	ldrsh.w	r0, [r5, #188]	; 0xbc
  a0:	42a0      	cmp	r0, r4
  a2:	dcb7      	bgt.n	14 <Cal_Hr_Motion+0x14>
  a4:	f895 00f5 	ldrb.w	r0, [r5, #245]	; 0xf5
  a8:	2801      	cmp	r0, #1
  aa:	d102      	bne.n	b2 <Cal_Hr_Motion+0xb2>
  ac:	4628      	mov	r0, r5
  ae:	f7ff fffe 	bl	0 <unmask_hr_step_frequency_mixed>
  b2:	4628      	mov	r0, r5
  b4:	f7ff fffe 	bl	0 <Cal_Grp_Candi>
  b8:	4628      	mov	r0, r5
  ba:	f7ff fffe 	bl	0 <Near_Motion_Flag_Release>
  be:	f505 5400 	add.w	r4, r5, #8192	; 0x2000
  c2:	f894 0b11 	ldrb.w	r0, [r4, #2833]	; 0xb11
  c6:	2801      	cmp	r0, #1
  c8:	d175      	bne.n	1b6 <Cal_Hr_Motion+0x1b6>
  ca:	f894 0b50 	ldrb.w	r0, [r4, #2896]	; 0xb50
  ce:	b960      	cbnz	r0, ea <Cal_Hr_Motion+0xea>
  d0:	f9b4 0b4c 	ldrsh.w	r0, [r4, #2892]	; 0xb4c
  d4:	2800      	cmp	r0, #0
  d6:	dd08      	ble.n	ea <Cal_Hr_Motion+0xea>
  d8:	f9b4 1b4e 	ldrsh.w	r1, [r4, #2894]	; 0xb4e
  dc:	fb90 f0f1 	sdiv	r0, r0, r1
  e0:	f8a4 0b4c 	strh.w	r0, [r4, #2892]	; 0xb4c
  e4:	2001      	movs	r0, #1
  e6:	f884 0b50 	strb.w	r0, [r4, #2896]	; 0xb50
  ea:	f9b4 19e6 	ldrsh.w	r1, [r4, #2534]	; 0x9e6
  ee:	2600      	movs	r6, #0
  f0:	f10d 0a08 	add.w	sl, sp, #8
  f4:	2900      	cmp	r1, #0
  f6:	dd2c      	ble.n	152 <Cal_Hr_Motion+0x152>
  f8:	f642 10ce 	movw	r0, #10702	; 0x29ce
  fc:	182b      	adds	r3, r5, r0
  fe:	f642 109e 	movw	r0, #10654	; 0x299e
 102:	182a      	adds	r2, r5, r0
 104:	461f      	mov	r7, r3
 106:	4616      	mov	r6, r2
 108:	4628      	mov	r0, r5
 10a:	f7ff fffe 	bl	0 <Cal_Hr_Motion>
 10e:	f894 0f1c 	ldrb.w	r0, [r4, #3868]	; 0xf1c
 112:	2801      	cmp	r0, #1
 114:	d013      	beq.n	13e <Cal_Hr_Motion+0x13e>
 116:	f9b5 001c 	ldrsh.w	r0, [r5, #28]
 11a:	e9cd 0a00 	strd	r0, sl, [sp]
 11e:	bf00      	nop
 120:	f9b4 19e6 	ldrsh.w	r1, [r4, #2534]	; 0x9e6
 124:	463b      	mov	r3, r7
 126:	4632      	mov	r2, r6
 128:	4628      	mov	r0, r5
 12a:	f7ff fffe 	bl	0 <Search_Non_Mask_Candi>
 12e:	4606      	mov	r6, r0
 130:	f895 00f6 	ldrb.w	r0, [r5, #246]	; 0xf6
 134:	2801      	cmp	r0, #1
 136:	d006      	beq.n	146 <Cal_Hr_Motion+0x146>
 138:	2e01      	cmp	r6, #1
 13a:	d00f      	beq.n	15c <Cal_Hr_Motion+0x15c>
 13c:	e005      	b.n	14a <Cal_Hr_Motion+0x14a>
 13e:	2132      	movs	r1, #50	; 0x32
 140:	e9cd 1a00 	strd	r1, sl, [sp]
 144:	e7ec      	b.n	120 <Cal_Hr_Motion+0x120>
 146:	2e01      	cmp	r6, #1
 148:	d004      	beq.n	154 <Cal_Hr_Motion+0x154>
 14a:	f894 0b29 	ldrb.w	r0, [r4, #2857]	; 0xb29
 14e:	2801      	cmp	r0, #1
 150:	d079      	beq.n	246 <Cal_Hr_Motion+0x246>
 152:	e0e1      	b.n	318 <Cal_Hr_Motion+0x318>
 154:	f8bd 0008 	ldrh.w	r0, [sp, #8]
 158:	f8a4 0f3c 	strh.w	r0, [r4, #3900]	; 0xf3c
 15c:	f894 0b28 	ldrb.w	r0, [r4, #2856]	; 0xb28
 160:	2801      	cmp	r0, #1
 162:	d014      	beq.n	18e <Cal_Hr_Motion+0x18e>
 164:	f9b4 3b14 	ldrsh.w	r3, [r4, #2836]	; 0xb14
 168:	f9bd 1008 	ldrsh.w	r1, [sp, #8]
 16c:	1ac8      	subs	r0, r1, r3
 16e:	d500      	bpl.n	172 <Cal_Hr_Motion+0x172>
 170:	1a58      	subs	r0, r3, r1
 172:	fa0f f980 	sxth.w	r9, r0
 176:	f9b5 001c 	ldrsh.w	r0, [r5, #28]
 17a:	eb00 71d0 	add.w	r1, r0, r0, lsr #31
 17e:	9101      	str	r1, [sp, #4]
 180:	ebb9 0f61 	cmp.w	r9, r1, asr #1
 184:	dd0c      	ble.n	1a0 <Cal_Hr_Motion+0x1a0>
 186:	2100      	movs	r1, #0
 188:	f9b5 c0bc 	ldrsh.w	ip, [r5, #188]	; 0xbc
 18c:	e057      	b.n	23e <Cal_Hr_Motion+0x23e>
 18e:	f9b4 0b14 	ldrsh.w	r0, [r4, #2836]	; 0xb14
 192:	f9bd 2008 	ldrsh.w	r2, [sp, #8]
 196:	1ec1      	subs	r1, r0, #3
 198:	4291      	cmp	r1, r2
 19a:	dd01      	ble.n	1a0 <Cal_Hr_Motion+0x1a0>
 19c:	285a      	cmp	r0, #90	; 0x5a
 19e:	db7d      	blt.n	29c <Cal_Hr_Motion+0x29c>
 1a0:	e0ba      	b.n	318 <Cal_Hr_Motion+0x318>
 1a2:	ebc1 02c1 	rsb	r2, r1, r1, lsl #3
 1a6:	ebc2 2201 	rsb	r2, r2, r1, lsl #8
 1aa:	eb05 0e82 	add.w	lr, r5, r2, lsl #2
 1ae:	2000      	movs	r0, #0
 1b0:	f50e 5280 	add.w	r2, lr, #4096	; 0x1000
 1b4:	e03d      	b.n	232 <Cal_Hr_Motion+0x232>
 1b6:	e2e4      	b.n	782 <Cal_Hr_Motion+0x782>
 1b8:	eb01 0741 	add.w	r7, r1, r1, lsl #1
 1bc:	442f      	add	r7, r5
 1be:	4407      	add	r7, r0
 1c0:	f507 5700 	add.w	r7, r7, #8192	; 0x2000
 1c4:	f897 7ab8 	ldrb.w	r7, [r7, #2744]	; 0xab8
 1c8:	bb8f      	cbnz	r7, 22e <Cal_Hr_Motion+0x22e>
 1ca:	eb0e 0740 	add.w	r7, lr, r0, lsl #1
 1ce:	f507 5780 	add.w	r7, r7, #4096	; 0x1000
 1d2:	f9b7 79f8 	ldrsh.w	r7, [r7, #2552]	; 0x9f8
 1d6:	9703      	str	r7, [sp, #12]
 1d8:	1aff      	subs	r7, r7, r3
 1da:	d501      	bpl.n	1e0 <Cal_Hr_Motion+0x1e0>
 1dc:	9f03      	ldr	r7, [sp, #12]
 1de:	1bdf      	subs	r7, r3, r7
 1e0:	b23f      	sxth	r7, r7
 1e2:	9700      	str	r7, [sp, #0]
 1e4:	454f      	cmp	r7, r9
 1e6:	da22      	bge.n	22e <Cal_Hr_Motion+0x22e>
 1e8:	f8dd 800c 	ldr.w	r8, [sp, #12]
 1ec:	f8d2 7dc0 	ldr.w	r7, [r2, #3520]	; 0xdc0
 1f0:	f857 8028 	ldr.w	r8, [r7, r8, lsl #2]
 1f4:	ee00 8a10 	vmov	s0, r8
 1f8:	f9bd 8008 	ldrsh.w	r8, [sp, #8]
 1fc:	eef8 0ac0 	vcvt.f32.s32	s1, s0
 200:	f857 7028 	ldr.w	r7, [r7, r8, lsl #2]
 204:	ee00 7a10 	vmov	s0, r7
 208:	eeb8 0ac0 	vcvt.f32.s32	s0, s0
 20c:	ed9f 1afe 	vldr	s2, [pc, #1016]	; 608 <Cal_Hr_Motion+0x608>
 210:	ee20 0a01 	vmul.f32	s0, s0, s2
 214:	eef4 0ac0 	vcmpe.f32	s1, s0
 218:	eef1 fa10 	vmrs	APSR_nzcv, fpscr
 21c:	dd07      	ble.n	22e <Cal_Hr_Motion+0x22e>
 21e:	e9dd 7800 	ldrd	r7, r8, [sp]
 222:	ebb7 0f68 	cmp.w	r7, r8, asr #1
 226:	da02      	bge.n	22e <Cal_Hr_Motion+0x22e>
 228:	9f03      	ldr	r7, [sp, #12]
 22a:	f8ad 7008 	strh.w	r7, [sp, #8]
 22e:	1c40      	adds	r0, r0, #1
 230:	b200      	sxth	r0, r0
 232:	f9b2 79fe 	ldrsh.w	r7, [r2, #2558]	; 0x9fe
 236:	4287      	cmp	r7, r0
 238:	dcbe      	bgt.n	1b8 <Cal_Hr_Motion+0x1b8>
 23a:	1c49      	adds	r1, r1, #1
 23c:	b209      	sxth	r1, r1
 23e:	458c      	cmp	ip, r1
 240:	dcaf      	bgt.n	1a2 <Cal_Hr_Motion+0x1a2>
 242:	e069      	b.n	318 <Cal_Hr_Motion+0x318>
 244:	e7ff      	b.n	246 <Cal_Hr_Motion+0x246>
 246:	2700      	movs	r7, #0
 248:	4638      	mov	r0, r7
 24a:	f9b5 20bc 	ldrsh.w	r2, [r5, #188]	; 0xbc
 24e:	e010      	b.n	272 <Cal_Hr_Motion+0x272>
 250:	eb05 0180 	add.w	r1, r5, r0, lsl #2
 254:	f501 5130 	add.w	r1, r1, #11264	; 0x2c00
 258:	edd5 0a0d 	vldr	s1, [r5, #52]	; 0x34
 25c:	ed91 0aab 	vldr	s0, [r1, #684]	; 0x2ac
 260:	eeb4 0ae0 	vcmpe.f32	s0, s1
 264:	eef1 fa10 	vmrs	APSR_nzcv, fpscr
 268:	dd01      	ble.n	26e <Cal_Hr_Motion+0x26e>
 26a:	2701      	movs	r7, #1
 26c:	e003      	b.n	276 <Cal_Hr_Motion+0x276>
 26e:	1c40      	adds	r0, r0, #1
 270:	b200      	sxth	r0, r0
 272:	4282      	cmp	r2, r0
 274:	dcec      	bgt.n	250 <Cal_Hr_Motion+0x250>
 276:	f9b4 09e8 	ldrsh.w	r0, [r4, #2536]	; 0x9e8
 27a:	2803      	cmp	r0, #3
 27c:	da04      	bge.n	288 <Cal_Hr_Motion+0x288>
 27e:	4628      	mov	r0, r5
 280:	f7ff fffe 	bl	0 <Valid_1ch_Check>
 284:	2801      	cmp	r0, #1
 286:	d147      	bne.n	318 <Cal_Hr_Motion+0x318>
 288:	b3f7      	cbz	r7, 308 <Cal_Hr_Motion+0x308>
 28a:	f9b4 099e 	ldrsh.w	r0, [r4, #2462]	; 0x99e
 28e:	f9b4 1b44 	ldrsh.w	r1, [r4, #2884]	; 0xb44
 292:	4288      	cmp	r0, r1
 294:	dd40      	ble.n	318 <Cal_Hr_Motion+0x318>
 296:	f894 19ce 	ldrb.w	r1, [r4, #2510]	; 0x9ce
 29a:	e000      	b.n	29e <Cal_Hr_Motion+0x29e>
 29c:	e03b      	b.n	316 <Cal_Hr_Motion+0x316>
 29e:	bb99      	cbnz	r1, 308 <Cal_Hr_Motion+0x308>
 2a0:	f8ad 0008 	strh.w	r0, [sp, #8]
 2a4:	f9b4 2b14 	ldrsh.w	r2, [r4, #2836]	; 0xb14
 2a8:	1a81      	subs	r1, r0, r2
 2aa:	d500      	bpl.n	2ae <Cal_Hr_Motion+0x2ae>
 2ac:	1a11      	subs	r1, r2, r0
 2ae:	ebc2 0340 	rsb	r3, r2, r0, lsl #1
 2b2:	b209      	sxth	r1, r1
 2b4:	2b00      	cmp	r3, #0
 2b6:	d501      	bpl.n	2bc <Cal_Hr_Motion+0x2bc>
 2b8:	eba2 0340 	sub.w	r3, r2, r0, lsl #1
 2bc:	b21b      	sxth	r3, r3
 2be:	4299      	cmp	r1, r3
 2c0:	dd03      	ble.n	2ca <Cal_Hr_Motion+0x2ca>
 2c2:	0041      	lsls	r1, r0, #1
 2c4:	f8ad 1008 	strh.w	r1, [sp, #8]
 2c8:	4619      	mov	r1, r3
 2ca:	eb00 0740 	add.w	r7, r0, r0, lsl #1
 2ce:	1abb      	subs	r3, r7, r2
 2d0:	d502      	bpl.n	2d8 <Cal_Hr_Motion+0x2d8>
 2d2:	eba0 0380 	sub.w	r3, r0, r0, lsl #2
 2d6:	4413      	add	r3, r2
 2d8:	b21b      	sxth	r3, r3
 2da:	4299      	cmp	r1, r3
 2dc:	dd02      	ble.n	2e4 <Cal_Hr_Motion+0x2e4>
 2de:	f8ad 7008 	strh.w	r7, [sp, #8]
 2e2:	4619      	mov	r1, r3
 2e4:	eb00 73d0 	add.w	r3, r0, r0, lsr #31
 2e8:	ebc2 0063 	rsb	r0, r2, r3, asr #1
 2ec:	2800      	cmp	r0, #0
 2ee:	d501      	bpl.n	2f4 <Cal_Hr_Motion+0x2f4>
 2f0:	eba2 0063 	sub.w	r0, r2, r3, asr #1
 2f4:	b200      	sxth	r0, r0
 2f6:	4281      	cmp	r1, r0
 2f8:	dd02      	ble.n	300 <Cal_Hr_Motion+0x300>
 2fa:	1058      	asrs	r0, r3, #1
 2fc:	f8ad 0008 	strh.w	r0, [sp, #8]
 300:	f9bd 1008 	ldrsh.w	r1, [sp, #8]
 304:	1a88      	subs	r0, r1, r2
 306:	e000      	b.n	30a <Cal_Hr_Motion+0x30a>
 308:	e006      	b.n	318 <Cal_Hr_Motion+0x318>
 30a:	d500      	bpl.n	30e <Cal_Hr_Motion+0x30e>
 30c:	1a50      	subs	r0, r2, r1
 30e:	f9b5 101c 	ldrsh.w	r1, [r5, #28]
 312:	4288      	cmp	r0, r1
 314:	dd00      	ble.n	318 <Cal_Hr_Motion+0x318>
 316:	2600      	movs	r6, #0
 318:	f895 00d2 	ldrb.w	r0, [r5, #210]	; 0xd2
 31c:	2801      	cmp	r0, #1
 31e:	d102      	bne.n	326 <Cal_Hr_Motion+0x326>
 320:	f894 0f1c 	ldrb.w	r0, [r4, #3868]	; 0xf1c
 324:	b110      	cbz	r0, 32c <Cal_Hr_Motion+0x32c>
 326:	2e01      	cmp	r6, #1
 328:	d021      	beq.n	36e <Cal_Hr_Motion+0x36e>
 32a:	e01a      	b.n	362 <Cal_Hr_Motion+0x362>
 32c:	2e01      	cmp	r6, #1
 32e:	d118      	bne.n	362 <Cal_Hr_Motion+0x362>
 330:	f9b4 0b30 	ldrsh.w	r0, [r4, #2864]	; 0xb30
 334:	f9bd 1008 	ldrsh.w	r1, [sp, #8]
 338:	eba0 0280 	sub.w	r2, r0, r0, lsl #2
 33c:	440a      	add	r2, r1
 33e:	1d12      	adds	r2, r2, #4
 340:	2a08      	cmp	r2, #8
 342:	d90b      	bls.n	35c <Cal_Hr_Motion+0x35c>
 344:	eb00 0040 	add.w	r0, r0, r0, lsl #1
 348:	eb00 72d0 	add.w	r2, r0, r0, lsr #31
 34c:	eba1 0062 	sub.w	r0, r1, r2, asr #1
 350:	2800      	cmp	r0, #0
 352:	d501      	bpl.n	358 <Cal_Hr_Motion+0x358>
 354:	ebc1 0062 	rsb	r0, r1, r2, asr #1
 358:	2805      	cmp	r0, #5
 35a:	da08      	bge.n	36e <Cal_Hr_Motion+0x36e>
 35c:	2991      	cmp	r1, #145	; 0x91
 35e:	dd06      	ble.n	36e <Cal_Hr_Motion+0x36e>
 360:	2600      	movs	r6, #0
 362:	f242 780f 	movw	r8, #9999	; 0x270f
 366:	2700      	movs	r7, #0
 368:	eeb1 8a08 	vmov.f32	s16, #24	; 0x40c00000  6.0
 36c:	e0c4      	b.n	4f8 <Cal_Hr_Motion+0x4f8>
 36e:	f8bd 0008 	ldrh.w	r0, [sp, #8]
 372:	e166      	b.n	642 <Cal_Hr_Motion+0x642>
 374:	eb05 0087 	add.w	r0, r5, r7, lsl #2
 378:	f500 5030 	add.w	r0, r0, #11264	; 0x2c00
 37c:	edd5 0a0d 	vldr	s1, [r5, #52]	; 0x34
 380:	ed90 0aab 	vldr	s0, [r0, #684]	; 0x2ac
 384:	eeb4 0ae0 	vcmpe.f32	s0, s1
 388:	eef1 fa10 	vmrs	APSR_nzcv, fpscr
 38c:	dd3b      	ble.n	406 <Cal_Hr_Motion+0x406>
 38e:	f9b5 101c 	ldrsh.w	r1, [r5, #28]
 392:	e9cd 1a00 	strd	r1, sl, [sp]
 396:	eb07 0047 	add.w	r0, r7, r7, lsl #1
 39a:	1941      	adds	r1, r0, r5
 39c:	ebc7 00c7 	rsb	r0, r7, r7, lsl #3
 3a0:	ebc0 2007 	rsb	r0, r0, r7, lsl #8
 3a4:	eb01 030b 	add.w	r3, r1, fp
 3a8:	eb05 0080 	add.w	r0, r5, r0, lsl #2
 3ac:	f641 11f8 	movw	r1, #6648	; 0x19f8
 3b0:	1842      	adds	r2, r0, r1
 3b2:	f500 5980 	add.w	r9, r0, #4096	; 0x1000
 3b6:	4628      	mov	r0, r5
 3b8:	f9b9 19fe 	ldrsh.w	r1, [r9, #2558]	; 0x9fe
 3bc:	f7ff fffe 	bl	0 <Search_Non_Mask_Candi>
 3c0:	2801      	cmp	r0, #1
 3c2:	d11f      	bne.n	404 <Cal_Hr_Motion+0x404>
 3c4:	f9b4 1b14 	ldrsh.w	r1, [r4, #2836]	; 0xb14
 3c8:	f9bd 0008 	ldrsh.w	r0, [sp, #8]
 3cc:	1a42      	subs	r2, r0, r1
 3ce:	f1b2 0c00 	subs.w	ip, r2, #0
 3d2:	d500      	bpl.n	3d6 <Cal_Hr_Motion+0x3d6>
 3d4:	1a0a      	subs	r2, r1, r0
 3d6:	b212      	sxth	r2, r2
 3d8:	4542      	cmp	r2, r8
 3da:	da0d      	bge.n	3f8 <Cal_Hr_Motion+0x3f8>
 3dc:	4690      	mov	r8, r2
 3de:	f9b9 29fc 	ldrsh.w	r2, [r9, #2556]	; 0x9fc
 3e2:	4282      	cmp	r2, r0
 3e4:	d105      	bne.n	3f2 <Cal_Hr_Motion+0x3f2>
 3e6:	4281      	cmp	r1, r0
 3e8:	da03      	bge.n	3f2 <Cal_Hr_Motion+0x3f2>
 3ea:	eb0c 70dc 	add.w	r0, ip, ip, lsr #31
 3ee:	eb01 0060 	add.w	r0, r1, r0, asr #1
 3f2:	f8a4 0b12 	strh.w	r0, [r4, #2834]	; 0xb12
 3f6:	e001      	b.n	3fc <Cal_Hr_Motion+0x3fc>
 3f8:	2e01      	cmp	r6, #1
 3fa:	d17b      	bne.n	4f4 <Cal_Hr_Motion+0x4f4>
 3fc:	4628      	mov	r0, r5
 3fe:	f7ff fffe 	bl	0 <Chk_Steady_Motion_Idx_Ratio>
 402:	4606      	mov	r6, r0
 404:	e076      	b.n	4f4 <Cal_Hr_Motion+0x4f4>
 406:	f9b5 001c 	ldrsh.w	r0, [r5, #28]
 40a:	e9cd 0a00 	strd	r0, sl, [sp]
 40e:	eb07 0047 	add.w	r0, r7, r7, lsl #1
 412:	1941      	adds	r1, r0, r5
 414:	ebc7 00c7 	rsb	r0, r7, r7, lsl #3
 418:	eb01 030b 	add.w	r3, r1, fp
 41c:	ebc0 2007 	rsb	r0, r0, r7, lsl #8
 420:	eb05 0080 	add.w	r0, r5, r0, lsl #2
 424:	f641 11f8 	movw	r1, #6648	; 0x19f8
 428:	1842      	adds	r2, r0, r1
 42a:	f500 5080 	add.w	r0, r0, #4096	; 0x1000
 42e:	9003      	str	r0, [sp, #12]
 430:	f9b0 19fe 	ldrsh.w	r1, [r0, #2558]	; 0x9fe
 434:	4628      	mov	r0, r5
 436:	f7ff fffe 	bl	0 <Search_Non_Mask_Candi>
 43a:	4681      	mov	r9, r0
 43c:	f8bd 0008 	ldrh.w	r0, [sp, #8]
 440:	f1a0 011e 	sub.w	r1, r0, #30
 444:	301e      	adds	r0, #30
 446:	b202      	sxth	r2, r0
 448:	f9b5 0090 	ldrsh.w	r0, [r5, #144]	; 0x90
 44c:	b209      	sxth	r1, r1
 44e:	380a      	subs	r0, #10
 450:	4288      	cmp	r0, r1
 452:	dd00      	ble.n	456 <Cal_Hr_Motion+0x456>
 454:	b201      	sxth	r1, r0
 456:	f9b5 0022 	ldrsh.w	r0, [r5, #34]	; 0x22
 45a:	300a      	adds	r0, #10
 45c:	4290      	cmp	r0, r2
 45e:	da00      	bge.n	462 <Cal_Hr_Motion+0x462>
 460:	b202      	sxth	r2, r0
 462:	9803      	ldr	r0, [sp, #12]
 464:	f8d0 0dc0 	ldr.w	r0, [r0, #3520]	; 0xdc0
 468:	f7ff fffe 	bl	0 <Cal_Spec_Std_Mean>
 46c:	f1b9 0f01 	cmp.w	r9, #1
 470:	d140      	bne.n	4f4 <Cal_Hr_Motion+0x4f4>
 472:	ee10 0a10 	vmov	r0, s0
 476:	4965      	ldr	r1, [pc, #404]	; (60c <Cal_Hr_Motion+0x60c>)
 478:	4288      	cmp	r0, r1
 47a:	dd10      	ble.n	49e <Cal_Hr_Motion+0x49e>
 47c:	ed95 1a2c 	vldr	s2, [r5, #176]	; 0xb0
 480:	f8d4 087c 	ldr.w	r0, [r4, #2172]	; 0x87c
 484:	eeb8 1ac1 	vcvt.f32.s32	s2, s2
 488:	ee00 0a90 	vmov	s1, r0
 48c:	eef8 0ae0 	vcvt.f32.s32	s1, s1
 490:	ee21 1a08 	vmul.f32	s2, s2, s16
 494:	eef4 0ac1 	vcmpe.f32	s1, s2
 498:	eef1 fa10 	vmrs	APSR_nzcv, fpscr
 49c:	dc15      	bgt.n	4ca <Cal_Hr_Motion+0x4ca>
 49e:	ee10 0a10 	vmov	r0, s0
 4a2:	f1b0 5f7d 	cmp.w	r0, #1061158912	; 0x3f400000
 4a6:	dd25      	ble.n	4f4 <Cal_Hr_Motion+0x4f4>
 4a8:	f8d4 087c 	ldr.w	r0, [r4, #2172]	; 0x87c
 4ac:	ee00 0a10 	vmov	s0, r0
 4b0:	eef8 0ac0 	vcvt.f32.s32	s1, s0
 4b4:	ed95 0a2c 	vldr	s0, [r5, #176]	; 0xb0
 4b8:	eeb8 0ac0 	vcvt.f32.s32	s0, s0
 4bc:	ee20 0a08 	vmul.f32	s0, s0, s16
 4c0:	eef4 0ac0 	vcmpe.f32	s1, s0
 4c4:	eef1 fa10 	vmrs	APSR_nzcv, fpscr
 4c8:	d214      	bcs.n	4f4 <Cal_Hr_Motion+0x4f4>
 4ca:	f9bd 1008 	ldrsh.w	r1, [sp, #8]
 4ce:	4628      	mov	r0, r5
 4d0:	f7ff fffe 	bl	0 <Chk_If_Sel_Hr_Good>
 4d4:	2801      	cmp	r0, #1
 4d6:	d10d      	bne.n	4f4 <Cal_Hr_Motion+0x4f4>
 4d8:	f9b4 2b14 	ldrsh.w	r2, [r4, #2836]	; 0xb14
 4dc:	f9bd 1008 	ldrsh.w	r1, [sp, #8]
 4e0:	1a88      	subs	r0, r1, r2
 4e2:	d500      	bpl.n	4e6 <Cal_Hr_Motion+0x4e6>
 4e4:	1a50      	subs	r0, r2, r1
 4e6:	b200      	sxth	r0, r0
 4e8:	4540      	cmp	r0, r8
 4ea:	da03      	bge.n	4f4 <Cal_Hr_Motion+0x4f4>
 4ec:	4680      	mov	r8, r0
 4ee:	f8a4 1b12 	strh.w	r1, [r4, #2834]	; 0xb12
 4f2:	2601      	movs	r6, #1
 4f4:	1c7f      	adds	r7, r7, #1
 4f6:	b23f      	sxth	r7, r7
 4f8:	f9b5 00bc 	ldrsh.w	r0, [r5, #188]	; 0xbc
 4fc:	42b8      	cmp	r0, r7
 4fe:	f73f af39 	bgt.w	374 <Cal_Hr_Motion+0x374>
 502:	bbd6      	cbnz	r6, 57a <Cal_Hr_Motion+0x57a>
 504:	a902      	add	r1, sp, #8
 506:	4628      	mov	r0, r5
 508:	f7ff fffe 	bl	0 <Grp_Tracking_Chk>
 50c:	4606      	mov	r6, r0
 50e:	2801      	cmp	r0, #1
 510:	d133      	bne.n	57a <Cal_Hr_Motion+0x57a>
 512:	f8d4 087c 	ldr.w	r0, [r4, #2172]	; 0x87c
 516:	ee00 0a10 	vmov	s0, r0
 51a:	eef8 0ac0 	vcvt.f32.s32	s1, s0
 51e:	ed95 0a2c 	vldr	s0, [r5, #176]	; 0xb0
 522:	eeb8 0ac0 	vcvt.f32.s32	s0, s0
 526:	ee20 0a08 	vmul.f32	s0, s0, s16
 52a:	eef4 0ac0 	vcmpe.f32	s1, s0
 52e:	eef1 fa10 	vmrs	APSR_nzcv, fpscr
 532:	d223      	bcs.n	57c <Cal_Hr_Motion+0x57c>
 534:	2700      	movs	r7, #0
 536:	f8df 80d8 	ldr.w	r8, [pc, #216]	; 610 <Cal_Hr_Motion+0x610>
 53a:	e015      	b.n	568 <Cal_Hr_Motion+0x568>
 53c:	ebc7 00c7 	rsb	r0, r7, r7, lsl #3
 540:	ebc0 2007 	rsb	r0, r0, r7, lsl #8
 544:	eb05 0080 	add.w	r0, r5, r0, lsl #2
 548:	f500 5080 	add.w	r0, r0, #4096	; 0x1000
 54c:	2300      	movs	r3, #0
 54e:	f8d0 1dc0 	ldr.w	r1, [r0, #3520]	; 0xdc0
 552:	f9bd 2008 	ldrsh.w	r2, [sp, #8]
 556:	4628      	mov	r0, r5
 558:	f7ff fffe 	bl	0 <Cal_Partial_Spec_Std_Mean>
 55c:	ee10 0a10 	vmov	r0, s0
 560:	4540      	cmp	r0, r8
 562:	dc05      	bgt.n	570 <Cal_Hr_Motion+0x570>
 564:	1c7f      	adds	r7, r7, #1
 566:	b23f      	sxth	r7, r7
 568:	f9b5 00bc 	ldrsh.w	r0, [r5, #188]	; 0xbc
 56c:	42b8      	cmp	r0, r7
 56e:	dce5      	bgt.n	53c <Cal_Hr_Motion+0x53c>
 570:	f9b5 00bc 	ldrsh.w	r0, [r5, #188]	; 0xbc
 574:	42b8      	cmp	r0, r7
 576:	d101      	bne.n	57c <Cal_Hr_Motion+0x57c>
 578:	2600      	movs	r6, #0
 57a:	e064      	b.n	646 <Cal_Hr_Motion+0x646>
 57c:	f8bd 0008 	ldrh.w	r0, [sp, #8]
 580:	f8a4 0b12 	strh.w	r0, [r4, #2834]	; 0xb12
 584:	f8a4 0f3c 	strh.w	r0, [r4, #3900]	; 0xf3c
 588:	4628      	mov	r0, r5
 58a:	f7ff fffe 	bl	0 <Post_Grp_Tracking_Chk>
 58e:	f9b4 2b44 	ldrsh.w	r2, [r4, #2884]	; 0xb44
 592:	f9b4 1b12 	ldrsh.w	r1, [r4, #2834]	; 0xb12
 596:	eba2 0082 	sub.w	r0, r2, r2, lsl #2
 59a:	1808      	adds	r0, r1, r0
 59c:	d502      	bpl.n	5a4 <Cal_Hr_Motion+0x5a4>
 59e:	eb02 0042 	add.w	r0, r2, r2, lsl #1
 5a2:	1a40      	subs	r0, r0, r1
 5a4:	f9b5 2016 	ldrsh.w	r2, [r5, #22]
 5a8:	4290      	cmp	r0, r2
 5aa:	db41      	blt.n	630 <Cal_Hr_Motion+0x630>
 5ac:	f9b4 7b14 	ldrsh.w	r7, [r4, #2836]	; 0xb14
 5b0:	1bc8      	subs	r0, r1, r7
 5b2:	d500      	bpl.n	5b6 <Cal_Hr_Motion+0x5b6>
 5b4:	1a78      	subs	r0, r7, r1
 5b6:	b202      	sxth	r2, r0
 5b8:	2100      	movs	r1, #0
 5ba:	f9b5 80bc 	ldrsh.w	r8, [r5, #188]	; 0xbc
 5be:	e035      	b.n	62c <Cal_Hr_Motion+0x62c>
 5c0:	ebc1 03c1 	rsb	r3, r1, r1, lsl #3
 5c4:	ebc3 2301 	rsb	r3, r3, r1, lsl #8
 5c8:	eb05 0983 	add.w	r9, r5, r3, lsl #2
 5cc:	2000      	movs	r0, #0
 5ce:	f509 5380 	add.w	r3, r9, #4096	; 0x1000
 5d2:	e025      	b.n	620 <Cal_Hr_Motion+0x620>
 5d4:	eb01 0c41 	add.w	ip, r1, r1, lsl #1
 5d8:	44ac      	add	ip, r5
 5da:	4484      	add	ip, r0
 5dc:	f50c 5c00 	add.w	ip, ip, #8192	; 0x2000
 5e0:	f89c cab8 	ldrb.w	ip, [ip, #2744]	; 0xab8
 5e4:	f1bc 0f00 	cmp.w	ip, #0
 5e8:	d118      	bne.n	61c <Cal_Hr_Motion+0x61c>
 5ea:	eb09 0c40 	add.w	ip, r9, r0, lsl #1
 5ee:	f641 1af8 	movw	sl, #6648	; 0x19f8
 5f2:	f93c a00a 	ldrsh.w	sl, [ip, sl]
 5f6:	ebba 0c07 	subs.w	ip, sl, r7
 5fa:	d501      	bpl.n	600 <Cal_Hr_Motion+0x600>
 5fc:	eba7 0c0a 	sub.w	ip, r7, sl
 600:	fa0f fc8c 	sxth.w	ip, ip
 604:	4594      	cmp	ip, r2
 606:	e005      	b.n	614 <Cal_Hr_Motion+0x614>
 608:	3f666666 	.word	0x3f666666
 60c:	3f266666 	.word	0x3f266666
 610:	40200000 	.word	0x40200000
 614:	da02      	bge.n	61c <Cal_Hr_Motion+0x61c>
 616:	4662      	mov	r2, ip
 618:	f8a4 ab12 	strh.w	sl, [r4, #2834]	; 0xb12
 61c:	1c40      	adds	r0, r0, #1
 61e:	b200      	sxth	r0, r0
 620:	f9b3 c9fe 	ldrsh.w	ip, [r3, #2558]	; 0x9fe
 624:	4584      	cmp	ip, r0
 626:	dcd5      	bgt.n	5d4 <Cal_Hr_Motion+0x5d4>
 628:	1c49      	adds	r1, r1, #1
 62a:	b209      	sxth	r1, r1
 62c:	4588      	cmp	r8, r1
 62e:	dcc7      	bgt.n	5c0 <Cal_Hr_Motion+0x5c0>
 630:	f9b4 1b12 	ldrsh.w	r1, [r4, #2834]	; 0xb12
 634:	4628      	mov	r0, r5
 636:	f7ff fffe 	bl	0 <extra_chk_interference_in_ppg>
 63a:	2801      	cmp	r0, #1
 63c:	d103      	bne.n	646 <Cal_Hr_Motion+0x646>
 63e:	f8b4 0b14 	ldrh.w	r0, [r4, #2836]	; 0xb14
 642:	f8a4 0b12 	strh.w	r0, [r4, #2834]	; 0xb12
 646:	4631      	mov	r1, r6
 648:	4628      	mov	r0, r5
 64a:	f7ff fffe 	bl	0 <Dynamic_Hr_Model>
 64e:	4628      	mov	r0, r5
 650:	f7ff fffe 	bl	0 <Extra_Motion_Idx_LT130>
 654:	b946      	cbnz	r6, 668 <Cal_Hr_Motion+0x668>
 656:	f894 0efd 	ldrb.w	r0, [r4, #3837]	; 0xefd
 65a:	b910      	cbnz	r0, 662 <Cal_Hr_Motion+0x662>
 65c:	4628      	mov	r0, r5
 65e:	f7ff fffe 	bl	0 <Chk_If_Hr_Should_Large_than_Motion_Idx>
 662:	4628      	mov	r0, r5
 664:	f7ff fffe 	bl	0 <Chk_Ctn_Grp_Candi>
 668:	f895 0092 	ldrb.w	r0, [r5, #146]	; 0x92
 66c:	2801      	cmp	r0, #1
 66e:	d102      	bne.n	676 <Cal_Hr_Motion+0x676>
 670:	4628      	mov	r0, r5
 672:	f7ff fffe 	bl	0 <LWPS>
 676:	4628      	mov	r0, r5
 678:	f7ff fffe 	bl	0 <Cal_Hr_Motion>
 67c:	b936      	cbnz	r6, 68c <Cal_Hr_Motion+0x68c>
 67e:	f9b4 1b12 	ldrsh.w	r1, [r4, #2834]	; 0xb12
 682:	4628      	mov	r0, r5
 684:	f7ff fffe 	bl	0 <Chk_If_Sel_Hr_Good>
 688:	f884 0ba4 	strb.w	r0, [r4, #2980]	; 0xba4
 68c:	f895 0097 	ldrb.w	r0, [r5, #151]	; 0x97
 690:	2801      	cmp	r0, #1
 692:	d12a      	bne.n	6ea <Cal_Hr_Motion+0x6ea>
 694:	f894 0efd 	ldrb.w	r0, [r4, #3837]	; 0xefd
 698:	bb38      	cbnz	r0, 6ea <Cal_Hr_Motion+0x6ea>
 69a:	4628      	mov	r0, r5
 69c:	f7ff fffe 	bl	0 <Local_First_Peak_Alive_Tracking>
 6a0:	b990      	cbnz	r0, 6c8 <Cal_Hr_Motion+0x6c8>
 6a2:	f641 10f8 	movw	r0, #6648	; 0x19f8
 6a6:	f9b4 1b14 	ldrsh.w	r1, [r4, #2836]	; 0xb14
 6aa:	5f40      	ldrsh	r0, [r0, r5]
 6ac:	1a0a      	subs	r2, r1, r0
 6ae:	3208      	adds	r2, #8
 6b0:	2a10      	cmp	r2, #16
 6b2:	d809      	bhi.n	6c8 <Cal_Hr_Motion+0x6c8>
 6b4:	4281      	cmp	r1, r0
 6b6:	dd07      	ble.n	6c8 <Cal_Hr_Motion+0x6c8>
 6b8:	f9b4 1b30 	ldrsh.w	r1, [r4, #2864]	; 0xb30
 6bc:	1a09      	subs	r1, r1, r0
 6be:	1d09      	adds	r1, r1, #4
 6c0:	2908      	cmp	r1, #8
 6c2:	d801      	bhi.n	6c8 <Cal_Hr_Motion+0x6c8>
 6c4:	f8a4 0b12 	strh.w	r0, [r4, #2834]	; 0xb12
 6c8:	f8d4 1b8c 	ldr.w	r1, [r4, #2956]	; 0xb8c
 6cc:	f8d4 0884 	ldr.w	r0, [r4, #2180]	; 0x884
 6d0:	1a40      	subs	r0, r0, r1
 6d2:	2808      	cmp	r0, #8
 6d4:	da09      	bge.n	6ea <Cal_Hr_Motion+0x6ea>
 6d6:	f9b4 1b12 	ldrsh.w	r1, [r4, #2834]	; 0xb12
 6da:	f9b4 0b14 	ldrsh.w	r0, [r4, #2836]	; 0xb14
 6de:	1a09      	subs	r1, r1, r0
 6e0:	290a      	cmp	r1, #10
 6e2:	dd02      	ble.n	6ea <Cal_Hr_Motion+0x6ea>
 6e4:	1c40      	adds	r0, r0, #1
 6e6:	f8a4 0b12 	strh.w	r0, [r4, #2834]	; 0xb12
 6ea:	f895 009a 	ldrb.w	r0, [r5, #154]	; 0x9a
 6ee:	2801      	cmp	r0, #1
 6f0:	d103      	bne.n	6fa <Cal_Hr_Motion+0x6fa>
 6f2:	b916      	cbnz	r6, 6fa <Cal_Hr_Motion+0x6fa>
 6f4:	4628      	mov	r0, r5
 6f6:	f7ff fffe 	bl	0 <Global_First_Peak_Alive_Tracking>
 6fa:	f894 0b50 	ldrb.w	r0, [r4, #2896]	; 0xb50
 6fe:	2801      	cmp	r0, #1
 700:	d103      	bne.n	70a <Cal_Hr_Motion+0x70a>
 702:	f894 0ba4 	ldrb.w	r0, [r4, #2980]	; 0xba4
 706:	b900      	cbnz	r0, 70a <Cal_Hr_Motion+0x70a>
 708:	b156      	cbz	r6, 720 <Cal_Hr_Motion+0x720>
 70a:	2000      	movs	r0, #0
 70c:	f884 0f19 	strb.w	r0, [r4, #3865]	; 0xf19
 710:	4628      	mov	r0, r5
 712:	f7ff fffe 	bl	0 <Cal_Hr_Motion>
 716:	f895 0094 	ldrb.w	r0, [r5, #148]	; 0x94
 71a:	2801      	cmp	r0, #1
 71c:	d004      	beq.n	728 <Cal_Hr_Motion+0x728>
 71e:	e009      	b.n	734 <Cal_Hr_Motion+0x734>
 720:	4628      	mov	r0, r5
 722:	f7ff fffe 	bl	0 <Cal_Hr_Daily>
 726:	e7f3      	b.n	710 <Cal_Hr_Motion+0x710>
 728:	f894 0efd 	ldrb.w	r0, [r4, #3837]	; 0xefd
 72c:	b910      	cbnz	r0, 734 <Cal_Hr_Motion+0x734>
 72e:	4628      	mov	r0, r5
 730:	f7ff fffe 	bl	0 <Cal_Hr_Motion>
 734:	4628      	mov	r0, r5
 736:	f7ff fffe 	bl	0 <Record_Rest_Hr_St_Info>
 73a:	4628      	mov	r0, r5
 73c:	f7ff fffe 	bl	0 <Post_Pred_Check>
 740:	f895 0096 	ldrb.w	r0, [r5, #150]	; 0x96
 744:	2801      	cmp	r0, #1
 746:	d102      	bne.n	74e <Cal_Hr_Motion+0x74e>
 748:	4628      	mov	r0, r5
 74a:	f7ff fffe 	bl	0 <Split_Motion_Peak>
 74e:	4628      	mov	r0, r5
 750:	f7ff fffe 	bl	0 <Extra_Chk_Daily>
 754:	4628      	mov	r0, r5
 756:	f7ff fffe 	bl	0 <Cal_Hr_Motion>
 75a:	4628      	mov	r0, r5
 75c:	f7ff fffe 	bl	0 <Cal_Hr_Motion>
 760:	f895 00c8 	ldrb.w	r0, [r5, #200]	; 0xc8
 764:	2801      	cmp	r0, #1
 766:	d102      	bne.n	76e <Cal_Hr_Motion+0x76e>
 768:	4628      	mov	r0, r5
 76a:	f7ff fffe 	bl	0 <Cal_Hr_Motion>
 76e:	f895 00ec 	ldrb.w	r0, [r5, #236]	; 0xec
 772:	2801      	cmp	r0, #1
 774:	d102      	bne.n	77c <Cal_Hr_Motion+0x77c>
 776:	4628      	mov	r0, r5
 778:	f7ff fffe 	bl	0 <Cal_Hr_Motion>
 77c:	4628      	mov	r0, r5
 77e:	f7ff fffe 	bl	0 <Avg_Hr_In_Static_Update>
 782:	b005      	add	sp, #20
 784:	ecbd 8b02 	vpop	{d8}
 788:	e8bd 8ff0 	ldmia.w	sp!, {r4, r5, r6, r7, r8, r9, sl, fp, pc}

Disassembly of section i.Cal_Hr_Static:

00000000 <Cal_Hr_Static>:
   0:	e92d 4ff0 	stmdb	sp!, {r4, r5, r6, r7, r8, r9, sl, fp, lr}
   4:	4605      	mov	r5, r0
   6:	ed2d 8b02 	vpush	{d8}
   a:	b097      	sub	sp, #92	; 0x5c
   c:	f7ff fffe 	bl	0 <Cal_Grp_Candi>
  10:	2000      	movs	r0, #0
  12:	e00a      	b.n	2a <Cal_Hr_Static+0x2a>
  14:	eb00 0140 	add.w	r1, r0, r0, lsl #1
  18:	4429      	add	r1, r5
  1a:	2200      	movs	r2, #0
  1c:	f501 512a 	add.w	r1, r1, #10880	; 0x2a80
  20:	1c40      	adds	r0, r0, #1
  22:	870a      	strh	r2, [r1, #56]	; 0x38
  24:	f881 203a 	strb.w	r2, [r1, #58]	; 0x3a
  28:	b200      	sxth	r0, r0
  2a:	f9b5 10bc 	ldrsh.w	r1, [r5, #188]	; 0xbc
  2e:	4281      	cmp	r1, r0
  30:	dcf0      	bgt.n	14 <Cal_Hr_Static+0x14>
  32:	f505 5400 	add.w	r4, r5, #8192	; 0x2000
  36:	f505 5780 	add.w	r7, r5, #4096	; 0x1000
  3a:	f894 1b81 	ldrb.w	r1, [r4, #2945]	; 0xb81
  3e:	f505 5930 	add.w	r9, r5, #11264	; 0x2c00
  42:	2901      	cmp	r1, #1
  44:	d016      	beq.n	74 <Cal_Hr_Static+0x74>
  46:	f9b4 09e6 	ldrsh.w	r0, [r4, #2534]	; 0x9e6
  4a:	2800      	cmp	r0, #0
  4c:	dd7e      	ble.n	14c <Cal_Hr_Static+0x14c>
  4e:	aa0a      	add	r2, sp, #40	; 0x28
  50:	a90c      	add	r1, sp, #48	; 0x30
  52:	a80b      	add	r0, sp, #44	; 0x2c
  54:	e88d 0007 	stmia.w	sp, {r0, r1, r2}
  58:	f9b5 2010 	ldrsh.w	r2, [r5, #16]
  5c:	f9b4 11c0 	ldrsh.w	r1, [r4, #448]	; 0x1c0
  60:	f9b4 099e 	ldrsh.w	r0, [r4, #2462]	; 0x99e
  64:	ab0d      	add	r3, sp, #52	; 0x34
  66:	f7ff fffe 	bl	0 <Check_Harmonic>
  6a:	f894 1b11 	ldrb.w	r1, [r4, #2833]	; 0xb11
  6e:	b389      	cbz	r1, d4 <Cal_Hr_Static+0xd4>
  70:	b388      	cbz	r0, d6 <Cal_Hr_Static+0xd6>
  72:	e050      	b.n	116 <Cal_Hr_Static+0x116>
  74:	f895 0076 	ldrb.w	r0, [r5, #118]	; 0x76
  78:	2801      	cmp	r0, #1
  7a:	d106      	bne.n	8a <Cal_Hr_Static+0x8a>
  7c:	f9b4 0ec0 	ldrsh.w	r0, [r4, #3776]	; 0xec0
  80:	2800      	cmp	r0, #0
  82:	dd02      	ble.n	8a <Cal_Hr_Static+0x8a>
  84:	f8b4 1b58 	ldrh.w	r1, [r4, #2904]	; 0xb58
  88:	b331      	cbz	r1, d8 <Cal_Hr_Static+0xd8>
  8a:	f8b4 0b54 	ldrh.w	r0, [r4, #2900]	; 0xb54
  8e:	bf00      	nop
  90:	f8a4 0b12 	strh.w	r0, [r4, #2834]	; 0xb12
  94:	b200      	sxth	r0, r0
  96:	f8a4 0b34 	strh.w	r0, [r4, #2868]	; 0xb34
  9a:	f8d4 1884 	ldr.w	r1, [r4, #2180]	; 0x884
  9e:	f8c4 1b38 	str.w	r1, [r4, #2872]	; 0xb38
  a2:	f9b4 1eca 	ldrsh.w	r1, [r4, #3786]	; 0xeca
  a6:	f8d5 20b0 	ldr.w	r2, [r5, #176]	; 0xb0
  aa:	4351      	muls	r1, r2
  ac:	f8d4 2b2c 	ldr.w	r2, [r4, #2860]	; 0xb2c
  b0:	4291      	cmp	r1, r2
  b2:	db08      	blt.n	c6 <Cal_Hr_Static+0xc6>
  b4:	f9b4 1b1e 	ldrsh.w	r1, [r4, #2846]	; 0xb1e
  b8:	290a      	cmp	r1, #10
  ba:	db07      	blt.n	cc <Cal_Hr_Static+0xcc>
  bc:	f9b4 11c0 	ldrsh.w	r1, [r4, #448]	; 0x1c0
  c0:	391e      	subs	r1, #30
  c2:	4281      	cmp	r1, r0
  c4:	dd02      	ble.n	cc <Cal_Hr_Static+0xcc>
  c6:	2001      	movs	r0, #1
  c8:	f884 0b28 	strb.w	r0, [r4, #2856]	; 0xb28
  cc:	2000      	movs	r0, #0
  ce:	f884 0b81 	strb.w	r0, [r4, #2945]	; 0xb81
  d2:	e081      	b.n	1d8 <Cal_Hr_Static+0x1d8>
  d4:	e013      	b.n	fe <Cal_Hr_Static+0xfe>
  d6:	e004      	b.n	e2 <Cal_Hr_Static+0xe2>
  d8:	f9b4 1ec2 	ldrsh.w	r1, [r4, #3778]	; 0xec2
  dc:	fb90 f0f1 	sdiv	r0, r0, r1
  e0:	e7d6      	b.n	90 <Cal_Hr_Static+0x90>
  e2:	f9b4 0b14 	ldrsh.w	r0, [r4, #2836]	; 0xb14
  e6:	0081      	lsls	r1, r0, #2
  e8:	2005      	movs	r0, #5
  ea:	fb91 f0f0 	sdiv	r0, r1, r0
  ee:	f9b4 199e 	ldrsh.w	r1, [r4, #2462]	; 0x99e
  f2:	4288      	cmp	r0, r1
  f4:	db03      	blt.n	fe <Cal_Hr_Static+0xfe>
  f6:	f9b4 0b84 	ldrsh.w	r0, [r4, #2948]	; 0xb84
  fa:	2805      	cmp	r0, #5
  fc:	db0b      	blt.n	116 <Cal_Hr_Static+0x116>
  fe:	f9b4 199e 	ldrsh.w	r1, [r4, #2462]	; 0x99e
 102:	f8a4 1b12 	strh.w	r1, [r4, #2834]	; 0xb12
 106:	f895 00cb 	ldrb.w	r0, [r5, #203]	; 0xcb
 10a:	2801      	cmp	r0, #1
 10c:	d164      	bne.n	1d8 <Cal_Hr_Static+0x1d8>
 10e:	4628      	mov	r0, r5
 110:	f7ff fffe 	bl	0 <Static_Half_Hr_Check>
 114:	e02a      	b.n	16c <Cal_Hr_Static+0x16c>
 116:	2600      	movs	r6, #0
 118:	f04f 4880 	mov.w	r8, #1073741824	; 0x40000000
 11c:	e02b      	b.n	176 <Cal_Hr_Static+0x176>
 11e:	bf00      	nop
 120:	eb05 0046 	add.w	r0, r5, r6, lsl #1
 124:	f641 12f8 	movw	r2, #6648	; 0x19f8
 128:	f9b4 1b14 	ldrsh.w	r1, [r4, #2836]	; 0xb14
 12c:	5e82      	ldrsh	r2, [r0, r2]
 12e:	1a88      	subs	r0, r1, r2
 130:	1d00      	adds	r0, r0, #4
 132:	2808      	cmp	r0, #8
 134:	d81d      	bhi.n	172 <Cal_Hr_Static+0x172>
 136:	2301      	movs	r3, #1
 138:	4628      	mov	r0, r5
 13a:	f8d7 1dc0 	ldr.w	r1, [r7, #3520]	; 0xdc0
 13e:	f7ff fffe 	bl	0 <Cal_Partial_Spec_Std_Mean>
 142:	ee10 0a10 	vmov	r0, s0
 146:	4540      	cmp	r0, r8
 148:	dd13      	ble.n	172 <Cal_Hr_Static+0x172>
 14a:	e000      	b.n	14e <Cal_Hr_Static+0x14e>
 14c:	e018      	b.n	180 <Cal_Hr_Static+0x180>
 14e:	ed99 0aab 	vldr	s0, [r9, #684]	; 0x2ac
 152:	edd5 0a0d 	vldr	s1, [r5, #52]	; 0x34
 156:	eeb4 0ae0 	vcmpe.f32	s0, s1
 15a:	eef1 fa10 	vmrs	APSR_nzcv, fpscr
 15e:	dd08      	ble.n	172 <Cal_Hr_Static+0x172>
 160:	eb05 0046 	add.w	r0, r5, r6, lsl #1
 164:	f500 5080 	add.w	r0, r0, #4096	; 0x1000
 168:	f8b0 09f8 	ldrh.w	r0, [r0, #2552]	; 0x9f8
 16c:	f8a4 0b12 	strh.w	r0, [r4, #2834]	; 0xb12
 170:	e032      	b.n	1d8 <Cal_Hr_Static+0x1d8>
 172:	1c76      	adds	r6, r6, #1
 174:	b236      	sxth	r6, r6
 176:	f9b7 09fe 	ldrsh.w	r0, [r7, #2558]	; 0x9fe
 17a:	42b0      	cmp	r0, r6
 17c:	dcd0      	bgt.n	120 <Cal_Hr_Static+0x120>
 17e:	e02b      	b.n	1d8 <Cal_Hr_Static+0x1d8>
 180:	f8b5 00bc 	ldrh.w	r0, [r5, #188]	; 0xbc
 184:	2801      	cmp	r0, #1
 186:	d127      	bne.n	1d8 <Cal_Hr_Static+0x1d8>
 188:	2600      	movs	r6, #0
 18a:	f04f 4880 	mov.w	r8, #1073741824	; 0x40000000
 18e:	e01f      	b.n	1d0 <Cal_Hr_Static+0x1d0>
 190:	eb05 0046 	add.w	r0, r5, r6, lsl #1
 194:	f641 12f8 	movw	r2, #6648	; 0x19f8
 198:	f9b4 1b14 	ldrsh.w	r1, [r4, #2836]	; 0xb14
 19c:	5e82      	ldrsh	r2, [r0, r2]
 19e:	1a88      	subs	r0, r1, r2
 1a0:	1d00      	adds	r0, r0, #4
 1a2:	2808      	cmp	r0, #8
 1a4:	d812      	bhi.n	1cc <Cal_Hr_Static+0x1cc>
 1a6:	2301      	movs	r3, #1
 1a8:	4628      	mov	r0, r5
 1aa:	f8d7 1dc0 	ldr.w	r1, [r7, #3520]	; 0xdc0
 1ae:	f7ff fffe 	bl	0 <Cal_Partial_Spec_Std_Mean>
 1b2:	ee10 0a10 	vmov	r0, s0
 1b6:	4540      	cmp	r0, r8
 1b8:	dd08      	ble.n	1cc <Cal_Hr_Static+0x1cc>
 1ba:	ed99 0aab 	vldr	s0, [r9, #684]	; 0x2ac
 1be:	edd5 0a0d 	vldr	s1, [r5, #52]	; 0x34
 1c2:	eeb4 0ae0 	vcmpe.f32	s0, s1
 1c6:	eef1 fa10 	vmrs	APSR_nzcv, fpscr
 1ca:	dcc9      	bgt.n	160 <Cal_Hr_Static+0x160>
 1cc:	1c76      	adds	r6, r6, #1
 1ce:	b236      	sxth	r6, r6
 1d0:	f9b7 09fe 	ldrsh.w	r0, [r7, #2558]	; 0x9fe
 1d4:	42b0      	cmp	r0, r6
 1d6:	dcdb      	bgt.n	190 <Cal_Hr_Static+0x190>
 1d8:	f9b4 2b12 	ldrsh.w	r2, [r4, #2834]	; 0xb12
 1dc:	f9b5 0090 	ldrsh.w	r0, [r5, #144]	; 0x90
 1e0:	4282      	cmp	r2, r0
 1e2:	da5e      	bge.n	2a2 <Cal_Hr_Static+0x2a2>
 1e4:	f8b4 0b1a 	ldrh.w	r0, [r4, #2842]	; 0xb1a
 1e8:	1c40      	adds	r0, r0, #1
 1ea:	f8a4 0b1a 	strh.w	r0, [r4, #2842]	; 0xb1a
 1ee:	f894 0b11 	ldrb.w	r0, [r4, #2833]	; 0xb11
 1f2:	2801      	cmp	r0, #1
 1f4:	d004      	beq.n	200 <Cal_Hr_Static+0x200>
 1f6:	f894 0b80 	ldrb.w	r0, [r4, #2944]	; 0xb80
 1fa:	2801      	cmp	r0, #1
 1fc:	d03d      	beq.n	27a <Cal_Hr_Static+0x27a>
 1fe:	e2e5      	b.n	7cc <Cal_Hr_Static+0x7cc>
 200:	f9b4 1b14 	ldrsh.w	r1, [r4, #2836]	; 0xb14
 204:	1a88      	subs	r0, r1, r2
 206:	d500      	bpl.n	20a <Cal_Hr_Static+0x20a>
 208:	1a50      	subs	r0, r2, r1
 20a:	f9b5 9014 	ldrsh.w	r9, [r5, #20]
 20e:	b200      	sxth	r0, r0
 210:	4581      	cmp	r9, r0
 212:	daf4      	bge.n	1fe <Cal_Hr_Static+0x1fe>
 214:	2600      	movs	r6, #0
 216:	4632      	mov	r2, r6
 218:	f9b4 c9e6 	ldrsh.w	ip, [r4, #2534]	; 0x9e6
 21c:	e026      	b.n	26c <Cal_Hr_Static+0x26c>
 21e:	bf00      	nop
 220:	eb05 0842 	add.w	r8, r5, r2, lsl #1
 224:	f508 5800 	add.w	r8, r8, #8192	; 0x2000
 228:	f9b8 799e 	ldrsh.w	r7, [r8, #2462]	; 0x99e
 22c:	1bcb      	subs	r3, r1, r7
 22e:	d500      	bpl.n	232 <Cal_Hr_Static+0x232>
 230:	1a7b      	subs	r3, r7, r1
 232:	b21b      	sxth	r3, r3
 234:	4283      	cmp	r3, r0
 236:	da05      	bge.n	244 <Cal_Hr_Static+0x244>
 238:	4618      	mov	r0, r3
 23a:	f8a4 7b12 	strh.w	r7, [r4, #2834]	; 0xb12
 23e:	4581      	cmp	r9, r0
 240:	dd00      	ble.n	244 <Cal_Hr_Static+0x244>
 242:	2601      	movs	r6, #1
 244:	f9b8 799e 	ldrsh.w	r7, [r8, #2462]	; 0x99e
 248:	427b      	negs	r3, r7
 24a:	eb11 0343 	adds.w	r3, r1, r3, lsl #1
 24e:	d501      	bpl.n	254 <Cal_Hr_Static+0x254>
 250:	ebc1 0347 	rsb	r3, r1, r7, lsl #1
 254:	b21b      	sxth	r3, r3
 256:	4283      	cmp	r3, r0
 258:	da06      	bge.n	268 <Cal_Hr_Static+0x268>
 25a:	4618      	mov	r0, r3
 25c:	007b      	lsls	r3, r7, #1
 25e:	f8a4 3b12 	strh.w	r3, [r4, #2834]	; 0xb12
 262:	4581      	cmp	r9, r0
 264:	dd00      	ble.n	268 <Cal_Hr_Static+0x268>
 266:	2601      	movs	r6, #1
 268:	1c52      	adds	r2, r2, #1
 26a:	b212      	sxth	r2, r2
 26c:	4594      	cmp	ip, r2
 26e:	dcd7      	bgt.n	220 <Cal_Hr_Static+0x220>
 270:	2e00      	cmp	r6, #0
 272:	d1c4      	bne.n	1fe <Cal_Hr_Static+0x1fe>
 274:	f8a4 1b12 	strh.w	r1, [r4, #2834]	; 0xb12
 278:	e2a8      	b.n	7cc <Cal_Hr_Static+0x7cc>
 27a:	f9b4 09e8 	ldrsh.w	r0, [r4, #2536]	; 0x9e8
 27e:	2803      	cmp	r0, #3
 280:	da0c      	bge.n	29c <Cal_Hr_Static+0x29c>
 282:	4628      	mov	r0, r5
 284:	f7ff fffe 	bl	0 <Valid_1ch_Check>
 288:	2801      	cmp	r0, #1
 28a:	d007      	beq.n	29c <Cal_Hr_Static+0x29c>
 28c:	f8b4 0b54 	ldrh.w	r0, [r4, #2900]	; 0xb54
 290:	f8a4 0b12 	strh.w	r0, [r4, #2834]	; 0xb12
 294:	4628      	mov	r0, r5
 296:	f7ff fffe 	bl	0 <Cal_Hr_Static>
 29a:	e297      	b.n	7cc <Cal_Hr_Static+0x7cc>
 29c:	f8b4 099e 	ldrh.w	r0, [r4, #2462]	; 0x99e
 2a0:	e7f6      	b.n	290 <Cal_Hr_Static+0x290>
 2a2:	f894 0b11 	ldrb.w	r0, [r4, #2833]	; 0xb11
 2a6:	2801      	cmp	r0, #1
 2a8:	d17d      	bne.n	3a6 <Cal_Hr_Static+0x3a6>
 2aa:	2000      	movs	r0, #0
 2ac:	9012      	str	r0, [sp, #72]	; 0x48
 2ae:	f9b4 0b14 	ldrsh.w	r0, [r4, #2836]	; 0xb14
 2b2:	1a81      	subs	r1, r0, r2
 2b4:	d500      	bpl.n	2b8 <Cal_Hr_Static+0x2b8>
 2b6:	1a11      	subs	r1, r2, r0
 2b8:	b20e      	sxth	r6, r1
 2ba:	f9b4 1f68 	ldrsh.w	r1, [r4, #3944]	; 0xf68
 2be:	2902      	cmp	r1, #2
 2c0:	da0d      	bge.n	2de <Cal_Hr_Static+0x2de>
 2c2:	f9b5 1014 	ldrsh.w	r1, [r5, #20]
 2c6:	42b1      	cmp	r1, r6
 2c8:	da09      	bge.n	2de <Cal_Hr_Static+0x2de>
 2ca:	4282      	cmp	r2, r0
 2cc:	da02      	bge.n	2d4 <Cal_Hr_Static+0x2d4>
 2ce:	f1a0 0001 	sub.w	r0, r0, #1
 2d2:	e002      	b.n	2da <Cal_Hr_Static+0x2da>
 2d4:	dd03      	ble.n	2de <Cal_Hr_Static+0x2de>
 2d6:	f100 0001 	add.w	r0, r0, #1
 2da:	f8a4 0b12 	strh.w	r0, [r4, #2834]	; 0xb12
 2de:	f9b5 0014 	ldrsh.w	r0, [r5, #20]
 2e2:	42b0      	cmp	r0, r6
 2e4:	da7e      	bge.n	3e4 <Cal_Hr_Static+0x3e4>
 2e6:	f04f 0b00 	mov.w	fp, #0
 2ea:	4658      	mov	r0, fp
 2ec:	e0be      	b.n	46c <Cal_Hr_Static+0x46c>
 2ee:	bf00      	nop
 2f0:	eb05 0048 	add.w	r0, r5, r8, lsl #1
 2f4:	f9b4 1b14 	ldrsh.w	r1, [r4, #2836]	; 0xb14
 2f8:	f500 5000 	add.w	r0, r0, #8192	; 0x2000
 2fc:	9013      	str	r0, [sp, #76]	; 0x4c
 2fe:	f9b0 299e 	ldrsh.w	r2, [r0, #2462]	; 0x99e
 302:	1a88      	subs	r0, r1, r2
 304:	d500      	bpl.n	308 <Cal_Hr_Static+0x308>
 306:	1a50      	subs	r0, r2, r1
 308:	b200      	sxth	r0, r0
 30a:	42b0      	cmp	r0, r6
 30c:	da08      	bge.n	320 <Cal_Hr_Static+0x320>
 30e:	4606      	mov	r6, r0
 310:	f8a4 2b12 	strh.w	r2, [r4, #2834]	; 0xb12
 314:	f9b5 001c 	ldrsh.w	r0, [r5, #28]
 318:	42b0      	cmp	r0, r6
 31a:	dd01      	ble.n	320 <Cal_Hr_Static+0x320>
 31c:	f04f 0b01 	mov.w	fp, #1
 320:	9813      	ldr	r0, [sp, #76]	; 0x4c
 322:	f9b0 099e 	ldrsh.w	r0, [r0, #2462]	; 0x99e
 326:	eb00 72d0 	add.w	r2, r0, r0, lsr #31
 32a:	eba1 0062 	sub.w	r0, r1, r2, asr #1
 32e:	2800      	cmp	r0, #0
 330:	d501      	bpl.n	336 <Cal_Hr_Static+0x336>
 332:	ebc1 0062 	rsb	r0, r1, r2, asr #1
 336:	b200      	sxth	r0, r0
 338:	42b0      	cmp	r0, r6
 33a:	da09      	bge.n	350 <Cal_Hr_Static+0x350>
 33c:	4606      	mov	r6, r0
 33e:	1050      	asrs	r0, r2, #1
 340:	f8a4 0b12 	strh.w	r0, [r4, #2834]	; 0xb12
 344:	f9b5 1014 	ldrsh.w	r1, [r5, #20]
 348:	42b1      	cmp	r1, r6
 34a:	dd01      	ble.n	350 <Cal_Hr_Static+0x350>
 34c:	f04f 0b01 	mov.w	fp, #1
 350:	9813      	ldr	r0, [sp, #76]	; 0x4c
 352:	f9b0 09e8 	ldrsh.w	r0, [r0, #2536]	; 0x9e8
 356:	2803      	cmp	r0, #3
 358:	da04      	bge.n	364 <Cal_Hr_Static+0x364>
 35a:	4628      	mov	r0, r5
 35c:	f7ff fffe 	bl	0 <Valid_1ch_Check>
 360:	2801      	cmp	r0, #1
 362:	d170      	bne.n	446 <Cal_Hr_Static+0x446>
 364:	f8d4 1b8c 	ldr.w	r1, [r4, #2956]	; 0xb8c
 368:	f8d4 0884 	ldr.w	r0, [r4, #2180]	; 0x884
 36c:	1a40      	subs	r0, r0, r1
 36e:	280a      	cmp	r0, #10
 370:	dd79      	ble.n	466 <Cal_Hr_Static+0x466>
 372:	9913      	ldr	r1, [sp, #76]	; 0x4c
 374:	f9b4 0b14 	ldrsh.w	r0, [r4, #2836]	; 0xb14
 378:	9002      	str	r0, [sp, #8]
 37a:	f9b1 e99e 	ldrsh.w	lr, [r1, #2462]	; 0x99e
 37e:	f1ce 0100 	rsb	r1, lr, #0
 382:	eb10 0041 	adds.w	r0, r0, r1, lsl #1
 386:	d502      	bpl.n	38e <Cal_Hr_Static+0x38e>
 388:	9802      	ldr	r0, [sp, #8]
 38a:	ebc0 004e 	rsb	r0, r0, lr, lsl #1
 38e:	b200      	sxth	r0, r0
 390:	9001      	str	r0, [sp, #4]
 392:	42b0      	cmp	r0, r6
 394:	da67      	bge.n	466 <Cal_Hr_Static+0x466>
 396:	2200      	movs	r2, #0
 398:	4606      	mov	r6, r0
 39a:	f9b5 30bc 	ldrsh.w	r3, [r5, #188]	; 0xbc
 39e:	4611      	mov	r1, r2
 3a0:	4610      	mov	r0, r2
 3a2:	9300      	str	r3, [sp, #0]
 3a4:	e013      	b.n	3ce <Cal_Hr_Static+0x3ce>
 3a6:	e159      	b.n	65c <Cal_Hr_Static+0x65c>
 3a8:	ebc0 03c0 	rsb	r3, r0, r0, lsl #3
 3ac:	ebc3 2300 	rsb	r3, r3, r0, lsl #8
 3b0:	eb05 0383 	add.w	r3, r5, r3, lsl #2
 3b4:	f503 5380 	add.w	r3, r3, #4096	; 0x1000
 3b8:	1c40      	adds	r0, r0, #1
 3ba:	f8d3 3dc0 	ldr.w	r3, [r3, #3520]	; 0xdc0
 3be:	b200      	sxth	r0, r0
 3c0:	f853 c02e 	ldr.w	ip, [r3, lr, lsl #2]
 3c4:	f853 303e 	ldr.w	r3, [r3, lr, lsl #3]
 3c8:	4462      	add	r2, ip
 3ca:	4419      	add	r1, r3
 3cc:	9b00      	ldr	r3, [sp, #0]
 3ce:	4283      	cmp	r3, r0
 3d0:	dcea      	bgt.n	3a8 <Cal_Hr_Static+0x3a8>
 3d2:	eb01 0081 	add.w	r0, r1, r1, lsl #2
 3d6:	ebb0 0f82 	cmp.w	r0, r2, lsl #2
 3da:	da0a      	bge.n	3f2 <Cal_Hr_Static+0x3f2>
 3dc:	9802      	ldr	r0, [sp, #8]
 3de:	eb00 70d0 	add.w	r0, r0, r0, lsr #31
 3e2:	e000      	b.n	3e6 <Cal_Hr_Static+0x3e6>
 3e4:	e0d8      	b.n	598 <Cal_Hr_Static+0x598>
 3e6:	f04f 0c0a 	mov.w	ip, #10
 3ea:	eb0c 0060 	add.w	r0, ip, r0, asr #1
 3ee:	4586      	cmp	lr, r0
 3f0:	dc0a      	bgt.n	408 <Cal_Hr_Static+0x408>
 3f2:	bb4e      	cbnz	r6, 448 <Cal_Hr_Static+0x448>
 3f4:	ebc1 00c1 	rsb	r0, r1, r1, lsl #3
 3f8:	ebb0 0f82 	cmp.w	r0, r2, lsl #2
 3fc:	da25      	bge.n	44a <Cal_Hr_Static+0x44a>
 3fe:	f9b5 1090 	ldrsh.w	r1, [r5, #144]	; 0x90
 402:	1d49      	adds	r1, r1, #5
 404:	458e      	cmp	lr, r1
 406:	dd20      	ble.n	44a <Cal_Hr_Static+0x44a>
 408:	aa0a      	add	r2, sp, #40	; 0x28
 40a:	a90c      	add	r1, sp, #48	; 0x30
 40c:	a80b      	add	r0, sp, #44	; 0x2c
 40e:	e88d 0007 	stmia.w	sp, {r0, r1, r2}
 412:	f9b5 2010 	ldrsh.w	r2, [r5, #16]
 416:	f9b4 11c0 	ldrsh.w	r1, [r4, #448]	; 0x1c0
 41a:	4670      	mov	r0, lr
 41c:	ab0d      	add	r3, sp, #52	; 0x34
 41e:	f7ff fffe 	bl	0 <Check_Harmonic>
 422:	b9d0      	cbnz	r0, 45a <Cal_Hr_Static+0x45a>
 424:	f9b4 0b14 	ldrsh.w	r0, [r4, #2836]	; 0xb14
 428:	0081      	lsls	r1, r0, #2
 42a:	2005      	movs	r0, #5
 42c:	fb91 f1f0 	sdiv	r1, r1, r0
 430:	9813      	ldr	r0, [sp, #76]	; 0x4c
 432:	f9b0 099e 	ldrsh.w	r0, [r0, #2462]	; 0x99e
 436:	4281      	cmp	r1, r0
 438:	da0f      	bge.n	45a <Cal_Hr_Static+0x45a>
 43a:	f8a4 0b12 	strh.w	r0, [r4, #2834]	; 0xb12
 43e:	2600      	movs	r6, #0
 440:	2001      	movs	r0, #1
 442:	9012      	str	r0, [sp, #72]	; 0x48
 444:	e009      	b.n	45a <Cal_Hr_Static+0x45a>
 446:	e00e      	b.n	466 <Cal_Hr_Static+0x466>
 448:	e7ff      	b.n	44a <Cal_Hr_Static+0x44a>
 44a:	9802      	ldr	r0, [sp, #8]
 44c:	eb00 004e 	add.w	r0, r0, lr, lsl #1
 450:	eb00 70d0 	add.w	r0, r0, r0, lsr #31
 454:	1040      	asrs	r0, r0, #1
 456:	f8a4 0b12 	strh.w	r0, [r4, #2834]	; 0xb12
 45a:	f9b5 0014 	ldrsh.w	r0, [r5, #20]
 45e:	42b0      	cmp	r0, r6
 460:	dd01      	ble.n	466 <Cal_Hr_Static+0x466>
 462:	f04f 0b01 	mov.w	fp, #1
 466:	f108 0001 	add.w	r0, r8, #1
 46a:	b200      	sxth	r0, r0
 46c:	f9b4 19e6 	ldrsh.w	r1, [r4, #2534]	; 0x9e6
 470:	4680      	mov	r8, r0
 472:	4541      	cmp	r1, r8
 474:	f73f af3c 	bgt.w	2f0 <Cal_Hr_Static+0x2f0>
 478:	f1bb 0f00 	cmp.w	fp, #0
 47c:	d139      	bne.n	4f2 <Cal_Hr_Static+0x4f2>
 47e:	f242 760f 	movw	r6, #9999	; 0x270f
 482:	2000      	movs	r0, #0
 484:	e02d      	b.n	4e2 <Cal_Hr_Static+0x4e2>
 486:	a90e      	add	r1, sp, #56	; 0x38
 488:	f9b5 0014 	ldrsh.w	r0, [r5, #20]
 48c:	e9cd 0100 	strd	r0, r1, [sp]
 490:	eb08 0048 	add.w	r0, r8, r8, lsl #1
 494:	4428      	add	r0, r5
 496:	f642 21b8 	movw	r1, #10936	; 0x2ab8
 49a:	1843      	adds	r3, r0, r1
 49c:	ebc8 00c8 	rsb	r0, r8, r8, lsl #3
 4a0:	ebc0 2008 	rsb	r0, r0, r8, lsl #8
 4a4:	eb05 0080 	add.w	r0, r5, r0, lsl #2
 4a8:	f641 11f8 	movw	r1, #6648	; 0x19f8
 4ac:	1842      	adds	r2, r0, r1
 4ae:	1d89      	adds	r1, r1, #6
 4b0:	5e41      	ldrsh	r1, [r0, r1]
 4b2:	4628      	mov	r0, r5
 4b4:	f7ff fffe 	bl	0 <Search_Non_Mask_Candi>
 4b8:	4682      	mov	sl, r0
 4ba:	2801      	cmp	r0, #1
 4bc:	d10e      	bne.n	4dc <Cal_Hr_Static+0x4dc>
 4be:	f9b4 2b14 	ldrsh.w	r2, [r4, #2836]	; 0xb14
 4c2:	f9bd 1038 	ldrsh.w	r1, [sp, #56]	; 0x38
 4c6:	1a88      	subs	r0, r1, r2
 4c8:	d500      	bpl.n	4cc <Cal_Hr_Static+0x4cc>
 4ca:	1a50      	subs	r0, r2, r1
 4cc:	b200      	sxth	r0, r0
 4ce:	42b0      	cmp	r0, r6
 4d0:	da04      	bge.n	4dc <Cal_Hr_Static+0x4dc>
 4d2:	4606      	mov	r6, r0
 4d4:	f8a4 1b12 	strh.w	r1, [r4, #2834]	; 0xb12
 4d8:	f04f 0b01 	mov.w	fp, #1
 4dc:	f108 0001 	add.w	r0, r8, #1
 4e0:	b200      	sxth	r0, r0
 4e2:	f9b5 10bc 	ldrsh.w	r1, [r5, #188]	; 0xbc
 4e6:	4680      	mov	r8, r0
 4e8:	4541      	cmp	r1, r8
 4ea:	dccc      	bgt.n	486 <Cal_Hr_Static+0x486>
 4ec:	f1bb 0f00 	cmp.w	fp, #0
 4f0:	d00b      	beq.n	50a <Cal_Hr_Static+0x50a>
 4f2:	f9b4 0b14 	ldrsh.w	r0, [r4, #2836]	; 0xb14
 4f6:	f9b5 1038 	ldrsh.w	r1, [r5, #56]	; 0x38
 4fa:	4288      	cmp	r0, r1
 4fc:	dc03      	bgt.n	506 <Cal_Hr_Static+0x506>
 4fe:	f9b4 1b4c 	ldrsh.w	r1, [r4, #2892]	; 0xb4c
 502:	4288      	cmp	r0, r1
 504:	dd67      	ble.n	5d6 <Cal_Hr_Static+0x5d6>
 506:	2e0f      	cmp	r6, #15
 508:	dd65      	ble.n	5d6 <Cal_Hr_Static+0x5d6>
 50a:	9812      	ldr	r0, [sp, #72]	; 0x48
 50c:	b958      	cbnz	r0, 526 <Cal_Hr_Static+0x526>
 50e:	f9b4 0b40 	ldrsh.w	r0, [r4, #2880]	; 0xb40
 512:	2806      	cmp	r0, #6
 514:	db03      	blt.n	51e <Cal_Hr_Static+0x51e>
 516:	4628      	mov	r0, r5
 518:	f7ff fffe 	bl	0 <Cal_Reset_HR>
 51c:	e003      	b.n	526 <Cal_Hr_Static+0x526>
 51e:	f8b4 0b14 	ldrh.w	r0, [r4, #2836]	; 0xb14
 522:	f8a4 0b12 	strh.w	r0, [r4, #2834]	; 0xb12
 526:	f1bb 0f00 	cmp.w	fp, #0
 52a:	d154      	bne.n	5d6 <Cal_Hr_Static+0x5d6>
 52c:	f9b4 09e8 	ldrsh.w	r0, [r4, #2536]	; 0x9e8
 530:	2803      	cmp	r0, #3
 532:	da04      	bge.n	53e <Cal_Hr_Static+0x53e>
 534:	4628      	mov	r0, r5
 536:	f7ff fffe 	bl	0 <Valid_1ch_Check>
 53a:	2801      	cmp	r0, #1
 53c:	d124      	bne.n	588 <Cal_Hr_Static+0x588>
 53e:	f8b4 0f5c 	ldrh.w	r0, [r4, #3932]	; 0xf5c
 542:	2801      	cmp	r0, #1
 544:	d120      	bne.n	588 <Cal_Hr_Static+0x588>
 546:	f04f 0a00 	mov.w	sl, #0
 54a:	4650      	mov	r0, sl
 54c:	f9b5 30bc 	ldrsh.w	r3, [r5, #188]	; 0xbc
 550:	e018      	b.n	584 <Cal_Hr_Static+0x584>
 552:	bf00      	nop
 554:	ebc0 01c0 	rsb	r1, r0, r0, lsl #3
 558:	ebc1 2100 	rsb	r1, r1, r0, lsl #8
 55c:	eb05 0181 	add.w	r1, r5, r1, lsl #2
 560:	f641 12f8 	movw	r2, #6648	; 0x19f8
 564:	f9b4 699e 	ldrsh.w	r6, [r4, #2462]	; 0x99e
 568:	5e8a      	ldrsh	r2, [r1, r2]
 56a:	1ab1      	subs	r1, r6, r2
 56c:	d500      	bpl.n	570 <Cal_Hr_Static+0x570>
 56e:	1b91      	subs	r1, r2, r6
 570:	f9b5 2010 	ldrsh.w	r2, [r5, #16]
 574:	4291      	cmp	r1, r2
 576:	dc03      	bgt.n	580 <Cal_Hr_Static+0x580>
 578:	f10a 0101 	add.w	r1, sl, #1
 57c:	f001 0aff 	and.w	sl, r1, #255	; 0xff
 580:	1c40      	adds	r0, r0, #1
 582:	b200      	sxth	r0, r0
 584:	4283      	cmp	r3, r0
 586:	dce5      	bgt.n	554 <Cal_Hr_Static+0x554>
 588:	f9b5 00bc 	ldrsh.w	r0, [r5, #188]	; 0xbc
 58c:	4550      	cmp	r0, sl
 58e:	d122      	bne.n	5d6 <Cal_Hr_Static+0x5d6>
 590:	2802      	cmp	r0, #2
 592:	d002      	beq.n	59a <Cal_Hr_Static+0x59a>
 594:	2801      	cmp	r0, #1
 596:	d011      	beq.n	5bc <Cal_Hr_Static+0x5bc>
 598:	e01d      	b.n	5d6 <Cal_Hr_Static+0x5d6>
 59a:	edd9 0aab 	vldr	s1, [r9, #684]	; 0x2ac
 59e:	ed95 0a0d 	vldr	s0, [r5, #52]	; 0x34
 5a2:	eef4 0ac0 	vcmpe.f32	s1, s0
 5a6:	eef1 fa10 	vmrs	APSR_nzcv, fpscr
 5aa:	dd14      	ble.n	5d6 <Cal_Hr_Static+0x5d6>
 5ac:	edd9 0aac 	vldr	s1, [r9, #688]	; 0x2b0
 5b0:	eef4 0ac0 	vcmpe.f32	s1, s0
 5b4:	eef1 fa10 	vmrs	APSR_nzcv, fpscr
 5b8:	dc09      	bgt.n	5ce <Cal_Hr_Static+0x5ce>
 5ba:	e00c      	b.n	5d6 <Cal_Hr_Static+0x5d6>
 5bc:	ed99 0aab 	vldr	s0, [r9, #684]	; 0x2ac
 5c0:	edd5 0a0d 	vldr	s1, [r5, #52]	; 0x34
 5c4:	eeb4 0ae0 	vcmpe.f32	s0, s1
 5c8:	eef1 fa10 	vmrs	APSR_nzcv, fpscr
 5cc:	dd03      	ble.n	5d6 <Cal_Hr_Static+0x5d6>
 5ce:	f8b4 099e 	ldrh.w	r0, [r4, #2462]	; 0x99e
 5d2:	f8a4 0b12 	strh.w	r0, [r4, #2834]	; 0xb12
 5d6:	ed9f 8a82 	vldr	s16, [pc, #520]	; 7e0 <Cal_Hr_Static+0x7e0>
 5da:	2600      	movs	r6, #0
 5dc:	e014      	b.n	608 <Cal_Hr_Static+0x608>
 5de:	bf00      	nop
 5e0:	ebc6 00c6 	rsb	r0, r6, r6, lsl #3
 5e4:	ebc0 2006 	rsb	r0, r0, r6, lsl #8
 5e8:	eb05 0080 	add.w	r0, r5, r0, lsl #2
 5ec:	f500 5080 	add.w	r0, r0, #4096	; 0x1000
 5f0:	f9b4 2b12 	ldrsh.w	r2, [r4, #2834]	; 0xb12
 5f4:	f8d0 1dc0 	ldr.w	r1, [r0, #3520]	; 0xdc0
 5f8:	2300      	movs	r3, #0
 5fa:	4628      	mov	r0, r5
 5fc:	f7ff fffe 	bl	0 <Cal_Partial_Spec_Std_Mean>
 600:	ee30 8a08 	vadd.f32	s16, s0, s16
 604:	1c76      	adds	r6, r6, #1
 606:	b236      	sxth	r6, r6
 608:	f9b5 00bc 	ldrsh.w	r0, [r5, #188]	; 0xbc
 60c:	42b0      	cmp	r0, r6
 60e:	dce7      	bgt.n	5e0 <Cal_Hr_Static+0x5e0>
 610:	f894 0b50 	ldrb.w	r0, [r4, #2896]	; 0xb50
 614:	2801      	cmp	r0, #1
 616:	d11b      	bne.n	650 <Cal_Hr_Static+0x650>
 618:	f9b5 00bc 	ldrsh.w	r0, [r5, #188]	; 0xbc
 61c:	ee00 0a10 	vmov	s0, r0
 620:	eef8 0ac0 	vcvt.f32.s32	s1, s0
 624:	ee88 0a20 	vdiv.f32	s0, s16, s1
 628:	ee10 0a10 	vmov	r0, s0
 62c:	f1b0 4f80 	cmp.w	r0, #1073741824	; 0x40000000
 630:	da0e      	bge.n	650 <Cal_Hr_Static+0x650>
 632:	4628      	mov	r0, r5
 634:	f7ff fffe 	bl	0 <Cal_Hr_Daily>
 638:	f895 00cb 	ldrb.w	r0, [r5, #203]	; 0xcb
 63c:	2801      	cmp	r0, #1
 63e:	d10a      	bne.n	656 <Cal_Hr_Static+0x656>
 640:	f9b4 1b12 	ldrsh.w	r1, [r4, #2834]	; 0xb12
 644:	4628      	mov	r0, r5
 646:	f7ff fffe 	bl	0 <Static_Half_Hr_Check>
 64a:	f8a4 0b12 	strh.w	r0, [r4, #2834]	; 0xb12
 64e:	e002      	b.n	656 <Cal_Hr_Static+0x656>
 650:	2000      	movs	r0, #0
 652:	f884 0f19 	strb.w	r0, [r4, #3865]	; 0xf19
 656:	4628      	mov	r0, r5
 658:	f7ff fffe 	bl	0 <Cal_Hr_Static>
 65c:	f895 0076 	ldrb.w	r0, [r5, #118]	; 0x76
 660:	2801      	cmp	r0, #1
 662:	d10a      	bne.n	67a <Cal_Hr_Static+0x67a>
 664:	f9b4 0ec0 	ldrsh.w	r0, [r4, #3776]	; 0xec0
 668:	2800      	cmp	r0, #0
 66a:	dd06      	ble.n	67a <Cal_Hr_Static+0x67a>
 66c:	4628      	mov	r0, r5
 66e:	f7ff fffe 	bl	0 <Cal_Hr_Static>
 672:	4628      	mov	r0, r5
 674:	f7ff fffe 	bl	0 <Cal_Hr_Static>
 678:	e042      	b.n	700 <Cal_Hr_Static+0x700>
 67a:	f9b4 09e8 	ldrsh.w	r0, [r4, #2536]	; 0x9e8
 67e:	2802      	cmp	r0, #2
 680:	db30      	blt.n	6e4 <Cal_Hr_Static+0x6e4>
 682:	f894 0b11 	ldrb.w	r0, [r4, #2833]	; 0xb11
 686:	bb48      	cbnz	r0, 6dc <Cal_Hr_Static+0x6dc>
 688:	f8b4 0b58 	ldrh.w	r0, [r4, #2904]	; 0xb58
 68c:	2801      	cmp	r0, #1
 68e:	d125      	bne.n	6dc <Cal_Hr_Static+0x6dc>
 690:	2600      	movs	r6, #0
 692:	e01f      	b.n	6d4 <Cal_Hr_Static+0x6d4>
 694:	aa0a      	add	r2, sp, #40	; 0x28
 696:	a90c      	add	r1, sp, #48	; 0x30
 698:	a80b      	add	r0, sp, #44	; 0x2c
 69a:	e88d 0007 	stmia.w	sp, {r0, r1, r2}
 69e:	eb05 0046 	add.w	r0, r5, r6, lsl #1
 6a2:	f642 3154 	movw	r1, #11092	; 0x2b54
 6a6:	5e41      	ldrsh	r1, [r0, r1]
 6a8:	f9b5 2010 	ldrsh.w	r2, [r5, #16]
 6ac:	f9b4 0b12 	ldrsh.w	r0, [r4, #2834]	; 0xb12
 6b0:	ab0d      	add	r3, sp, #52	; 0x34
 6b2:	f7ff fffe 	bl	0 <Check_Harmonic>
 6b6:	2801      	cmp	r0, #1
 6b8:	d10a      	bne.n	6d0 <Cal_Hr_Static+0x6d0>
 6ba:	f9b4 1b12 	ldrsh.w	r1, [r4, #2834]	; 0xb12
 6be:	f9bd 0028 	ldrsh.w	r0, [sp, #40]	; 0x28
 6c2:	4281      	cmp	r1, r0
 6c4:	dd04      	ble.n	6d0 <Cal_Hr_Static+0x6d0>
 6c6:	f8a4 0b12 	strh.w	r0, [r4, #2834]	; 0xb12
 6ca:	2000      	movs	r0, #0
 6cc:	f884 0f19 	strb.w	r0, [r4, #3865]	; 0xf19
 6d0:	1c76      	adds	r6, r6, #1
 6d2:	b236      	sxth	r6, r6
 6d4:	f9b4 0b26 	ldrsh.w	r0, [r4, #2854]	; 0xb26
 6d8:	42b0      	cmp	r0, r6
 6da:	dcdb      	bgt.n	694 <Cal_Hr_Static+0x694>
 6dc:	4628      	mov	r0, r5
 6de:	f7ff fffe 	bl	0 <Cal_Hr_Static>
 6e2:	e00d      	b.n	700 <Cal_Hr_Static+0x700>
 6e4:	f895 009e 	ldrb.w	r0, [r5, #158]	; 0x9e
 6e8:	2801      	cmp	r0, #1
 6ea:	d109      	bne.n	700 <Cal_Hr_Static+0x700>
 6ec:	f894 0b11 	ldrb.w	r0, [r4, #2833]	; 0xb11
 6f0:	b930      	cbnz	r0, 700 <Cal_Hr_Static+0x700>
 6f2:	f9b4 0b12 	ldrsh.w	r0, [r4, #2834]	; 0xb12
 6f6:	2800      	cmp	r0, #0
 6f8:	dd02      	ble.n	700 <Cal_Hr_Static+0x700>
 6fa:	2001      	movs	r0, #1
 6fc:	f884 0b11 	strb.w	r0, [r4, #2833]	; 0xb11
 700:	4628      	mov	r0, r5
 702:	f7ff fffe 	bl	0 <Cal_Avg_Hr_In_Static>
 706:	4628      	mov	r0, r5
 708:	f7ff fffe 	bl	0 <Avg_Hr_In_Static_Update>
 70c:	f9b4 1b12 	ldrsh.w	r1, [r4, #2834]	; 0xb12
 710:	f9b4 0b14 	ldrsh.w	r0, [r4, #2836]	; 0xb14
 714:	4281      	cmp	r1, r0
 716:	d159      	bne.n	7cc <Cal_Hr_Static+0x7cc>
 718:	f9b4 0b84 	ldrsh.w	r0, [r4, #2948]	; 0xb84
 71c:	2805      	cmp	r0, #5
 71e:	db55      	blt.n	7cc <Cal_Hr_Static+0x7cc>
 720:	f9b4 0a9a 	ldrsh.w	r0, [r4, #2714]	; 0xa9a
 724:	f9b4 2a94 	ldrsh.w	r2, [r4, #2708]	; 0xa94
 728:	eb00 73d0 	add.w	r3, r0, r0, lsr #31
 72c:	eba2 0063 	sub.w	r0, r2, r3, asr #1
 730:	2800      	cmp	r0, #0
 732:	d501      	bpl.n	738 <Cal_Hr_Static+0x738>
 734:	ebc2 0063 	rsb	r0, r2, r3, asr #1
 738:	2803      	cmp	r0, #3
 73a:	da47      	bge.n	7cc <Cal_Hr_Static+0x7cc>
 73c:	f9b4 0aa6 	ldrsh.w	r0, [r4, #2726]	; 0xaa6
 740:	f9b4 3aa0 	ldrsh.w	r3, [r4, #2720]	; 0xaa0
 744:	eb00 76d0 	add.w	r6, r0, r0, lsr #31
 748:	eba3 0066 	sub.w	r0, r3, r6, asr #1
 74c:	2800      	cmp	r0, #0
 74e:	d501      	bpl.n	754 <Cal_Hr_Static+0x754>
 750:	ebc3 0066 	rsb	r0, r3, r6, asr #1
 754:	2803      	cmp	r0, #3
 756:	da03      	bge.n	760 <Cal_Hr_Static+0x760>
 758:	1ad0      	subs	r0, r2, r3
 75a:	1c80      	adds	r0, r0, #2
 75c:	2804      	cmp	r0, #4
 75e:	d903      	bls.n	768 <Cal_Hr_Static+0x768>
 760:	f8b5 00bc 	ldrh.w	r0, [r5, #188]	; 0xbc
 764:	2801      	cmp	r0, #1
 766:	d131      	bne.n	7cc <Cal_Hr_Static+0x7cc>
 768:	1a50      	subs	r0, r2, r1
 76a:	3013      	adds	r0, #19
 76c:	2826      	cmp	r0, #38	; 0x26
 76e:	d82d      	bhi.n	7cc <Cal_Hr_Static+0x7cc>
 770:	f8b5 00bc 	ldrh.w	r0, [r5, #188]	; 0xbc
 774:	2801      	cmp	r0, #1
 776:	d112      	bne.n	79e <Cal_Hr_Static+0x79e>
 778:	2301      	movs	r3, #1
 77a:	4628      	mov	r0, r5
 77c:	f8d7 1dc0 	ldr.w	r1, [r7, #3520]	; 0xdc0
 780:	f7ff fffe 	bl	0 <Cal_Partial_Spec_Std_Mean>
 784:	ee10 0a10 	vmov	r0, s0
 788:	4916      	ldr	r1, [pc, #88]	; (7e4 <Cal_Hr_Static+0x7e4>)
 78a:	4288      	cmp	r0, r1
 78c:	dd03      	ble.n	796 <Cal_Hr_Static+0x796>
 78e:	bf00      	nop
 790:	f8b4 0a94 	ldrh.w	r0, [r4, #2708]	; 0xa94
 794:	e00b      	b.n	7ae <Cal_Hr_Static+0x7ae>
 796:	f8b5 00bc 	ldrh.w	r0, [r5, #188]	; 0xbc
 79a:	2801      	cmp	r0, #1
 79c:	d00d      	beq.n	7ba <Cal_Hr_Static+0x7ba>
 79e:	f9b4 0a94 	ldrsh.w	r0, [r4, #2708]	; 0xa94
 7a2:	f9b4 1aa0 	ldrsh.w	r1, [r4, #2720]	; 0xaa0
 7a6:	4408      	add	r0, r1
 7a8:	eb00 70d0 	add.w	r0, r0, r0, lsr #31
 7ac:	1040      	asrs	r0, r0, #1
 7ae:	f8a4 0b12 	strh.w	r0, [r4, #2834]	; 0xb12
 7b2:	2000      	movs	r0, #0
 7b4:	f884 0f19 	strb.w	r0, [r4, #3865]	; 0xf19
 7b8:	e008      	b.n	7cc <Cal_Hr_Static+0x7cc>
 7ba:	ed99 0aab 	vldr	s0, [r9, #684]	; 0x2ac
 7be:	edd5 0a0d 	vldr	s1, [r5, #52]	; 0x34
 7c2:	eeb4 0ae0 	vcmpe.f32	s0, s1
 7c6:	eef1 fa10 	vmrs	APSR_nzcv, fpscr
 7ca:	dce1      	bgt.n	790 <Cal_Hr_Static+0x790>
 7cc:	f8b4 0b12 	ldrh.w	r0, [r4, #2834]	; 0xb12
 7d0:	f8a4 0b16 	strh.w	r0, [r4, #2838]	; 0xb16
 7d4:	b017      	add	sp, #92	; 0x5c
 7d6:	ecbd 8b02 	vpop	{d8}
 7da:	e8bd 8ff0 	ldmia.w	sp!, {r4, r5, r6, r7, r8, r9, sl, fp, pc}
	...
 7e6:	4020      	.short	0x4020

Disassembly of section i.Cal_Hr_Trust_Level:

00000000 <Cal_Hr_Trust_Level>:
   0:	e92d 47f0 	stmdb	sp!, {r4, r5, r6, r7, r8, r9, sl, lr}
   4:	2300      	movs	r3, #0
   6:	4605      	mov	r5, r0
   8:	4619      	mov	r1, r3
   a:	f04f 0902 	mov.w	r9, #2
   e:	f500 5400 	add.w	r4, r0, #8192	; 0x2000
  12:	f9b0 70bc 	ldrsh.w	r7, [r0, #188]	; 0xbc
  16:	e02e      	b.n	76 <Cal_Hr_Trust_Level+0x76>
  18:	eb01 0241 	add.w	r2, r1, r1, lsl #1
  1c:	eb02 0a05 	add.w	sl, r2, r5
  20:	ebc1 02c1 	rsb	r2, r1, r1, lsl #3
  24:	ebc2 2201 	rsb	r2, r2, r1, lsl #8
  28:	f641 16fe 	movw	r6, #6654	; 0x19fe
  2c:	eb05 0282 	add.w	r2, r5, r2, lsl #2
  30:	2000      	movs	r0, #0
  32:	5eb6      	ldrsh	r6, [r6, r2]
  34:	e01a      	b.n	6c <Cal_Hr_Trust_Level+0x6c>
  36:	bf00      	nop
  38:	eb02 0c40 	add.w	ip, r2, r0, lsl #1
  3c:	f50c 5c80 	add.w	ip, ip, #4096	; 0x1000
  40:	f9b4 8b12 	ldrsh.w	r8, [r4, #2834]	; 0xb12
  44:	f9bc c9f8 	ldrsh.w	ip, [ip, #2552]	; 0x9f8
  48:	eba8 0c0c 	sub.w	ip, r8, ip
  4c:	f10c 0c03 	add.w	ip, ip, #3
  50:	f1bc 0f06 	cmp.w	ip, #6
  54:	d808      	bhi.n	68 <Cal_Hr_Trust_Level+0x68>
  56:	eb0a 0c00 	add.w	ip, sl, r0
  5a:	f50c 5c00 	add.w	ip, ip, #8192	; 0x2000
  5e:	f89c cab8 	ldrb.w	ip, [ip, #2744]	; 0xab8
  62:	f1bc 0f00 	cmp.w	ip, #0
  66:	d009      	beq.n	7c <Cal_Hr_Trust_Level+0x7c>
  68:	1c40      	adds	r0, r0, #1
  6a:	b200      	sxth	r0, r0
  6c:	4286      	cmp	r6, r0
  6e:	dce3      	bgt.n	38 <Cal_Hr_Trust_Level+0x38>
  70:	b923      	cbnz	r3, 7c <Cal_Hr_Trust_Level+0x7c>
  72:	1c49      	adds	r1, r1, #1
  74:	b209      	sxth	r1, r1
  76:	428f      	cmp	r7, r1
  78:	dcce      	bgt.n	18 <Cal_Hr_Trust_Level+0x18>
  7a:	b3bb      	cbz	r3, ec <Cal_Hr_Trust_Level+0xec>
  7c:	ebc1 02c1 	rsb	r2, r1, r1, lsl #3
  80:	ebc2 2101 	rsb	r1, r2, r1, lsl #8
  84:	eb05 0181 	add.w	r1, r5, r1, lsl #2
  88:	f501 5180 	add.w	r1, r1, #4096	; 0x1000
  8c:	f9b4 2b12 	ldrsh.w	r2, [r4, #2834]	; 0xb12
  90:	f8d1 1dc0 	ldr.w	r1, [r1, #3520]	; 0xdc0
  94:	2301      	movs	r3, #1
  96:	eb01 0180 	add.w	r1, r1, r0, lsl #2
  9a:	4628      	mov	r0, r5
  9c:	f7ff fffe 	bl	0 <Cal_Partial_Spec_Std_Mean>
  a0:	ee10 0a10 	vmov	r0, s0
  a4:	f1b0 4f80 	cmp.w	r0, #1073741824	; 0x40000000
  a8:	dd27      	ble.n	fa <Cal_Hr_Trust_Level+0xfa>
  aa:	f894 0ed2 	ldrb.w	r0, [r4, #3794]	; 0xed2
  ae:	2803      	cmp	r0, #3
  b0:	d202      	bcs.n	b8 <Cal_Hr_Trust_Level+0xb8>
  b2:	1c40      	adds	r0, r0, #1
  b4:	f884 0ed2 	strb.w	r0, [r4, #3794]	; 0xed2
  b8:	b2c0      	uxtb	r0, r0
  ba:	2803      	cmp	r0, #3
  bc:	d114      	bne.n	e8 <Cal_Hr_Trust_Level+0xe8>
  be:	f641 50d1 	movw	r0, #7633	; 0x1dd1
  c2:	5d40      	ldrb	r0, [r0, r5]
  c4:	2803      	cmp	r0, #3
  c6:	d00f      	beq.n	e8 <Cal_Hr_Trust_Level+0xe8>
  c8:	f9b5 00bc 	ldrsh.w	r0, [r5, #188]	; 0xbc
  cc:	ebc0 01c0 	rsb	r1, r0, r0, lsl #3
  d0:	ebc1 2000 	rsb	r0, r1, r0, lsl #8
  d4:	eb05 0080 	add.w	r0, r5, r0, lsl #2
  d8:	f500 5080 	add.w	r0, r0, #4096	; 0x1000
  dc:	f890 09ed 	ldrb.w	r0, [r0, #2541]	; 0x9ed
  e0:	2803      	cmp	r0, #3
  e2:	d001      	beq.n	e8 <Cal_Hr_Trust_Level+0xe8>
  e4:	f884 9ed2 	strb.w	r9, [r4, #3794]	; 0xed2
  e8:	e8bd 87f0 	ldmia.w	sp!, {r4, r5, r6, r7, r8, r9, sl, pc}
  ec:	e7ff      	b.n	ee <Cal_Hr_Trust_Level+0xee>
  ee:	f894 0ed2 	ldrb.w	r0, [r4, #3794]	; 0xed2
  f2:	2800      	cmp	r0, #0
  f4:	d0f8      	beq.n	e8 <Cal_Hr_Trust_Level+0xe8>
  f6:	1e40      	subs	r0, r0, #1
  f8:	e7dc      	b.n	b4 <Cal_Hr_Trust_Level+0xb4>
  fa:	ee10 0a10 	vmov	r0, s0
  fe:	f1b0 5f7f 	cmp.w	r0, #1069547520	; 0x3fc00000
 102:	dcef      	bgt.n	e4 <Cal_Hr_Trust_Level+0xe4>
 104:	2001      	movs	r0, #1
 106:	f884 0ed2 	strb.w	r0, [r4, #3794]	; 0xed2
 10a:	e7ed      	b.n	e8 <Cal_Hr_Trust_Level+0xe8>

Disassembly of section i.Chk_Hr_Gt_Motion:

00000000 <Chk_Hr_Gt_Motion>:
   0:	e92d 4ff0 	stmdb	sp!, {r4, r5, r6, r7, r8, r9, sl, fp, lr}
   4:	f500 5100 	add.w	r1, r0, #8192	; 0x2000
   8:	f04f 0e00 	mov.w	lr, #0
   c:	f881 eb9c 	strb.w	lr, [r1, #2972]	; 0xb9c
  10:	ed9f 1ab0 	vldr	s2, [pc, #704]	; 2d4 <Chk_Hr_Gt_Motion+0x2d4>
  14:	f891 2b5c 	ldrb.w	r2, [r1, #2908]	; 0xb5c
  18:	f04f 39ff 	mov.w	r9, #4294967295	; 0xffffffff
  1c:	2a01      	cmp	r2, #1
  1e:	d17d      	bne.n	11c <Chk_Hr_Gt_Motion+0x11c>
  20:	f9b1 2b14 	ldrsh.w	r2, [r1, #2836]	; 0xb14
  24:	f9b1 4b30 	ldrsh.w	r4, [r1, #2864]	; 0xb30
  28:	1b12      	subs	r2, r2, r4
  2a:	1dd2      	adds	r2, r2, #7
  2c:	2a0e      	cmp	r2, #14
  2e:	d875      	bhi.n	11c <Chk_Hr_Gt_Motion+0x11c>
  30:	2c64      	cmp	r4, #100	; 0x64
  32:	db73      	blt.n	11c <Chk_Hr_Gt_Motion+0x11c>
  34:	f9b1 2b1e 	ldrsh.w	r2, [r1, #2846]	; 0xb1e
  38:	2a05      	cmp	r2, #5
  3a:	dd6f      	ble.n	11c <Chk_Hr_Gt_Motion+0x11c>
  3c:	f600 1208 	addw	r2, r0, #2312	; 0x908
  40:	f8c1 2b98 	str.w	r2, [r1, #2968]	; 0xb98
  44:	f1a4 020a 	sub.w	r2, r4, #10
  48:	b212      	sxth	r2, r2
  4a:	340a      	adds	r4, #10
  4c:	fa0f fc84 	sxth.w	ip, r4
  50:	4613      	mov	r3, r2
  52:	e01a      	b.n	8a <Chk_Hr_Gt_Motion+0x8a>
  54:	f8d1 4588 	ldr.w	r4, [r1, #1416]	; 0x588
  58:	f854 5023 	ldr.w	r5, [r4, r3, lsl #2]
  5c:	ee00 5a10 	vmov	s0, r5
  60:	f9b1 5b30 	ldrsh.w	r5, [r1, #2864]	; 0xb30
  64:	eef8 0ac0 	vcvt.f32.s32	s1, s0
  68:	f854 4025 	ldr.w	r4, [r4, r5, lsl #2]
  6c:	1a9d      	subs	r5, r3, r2
  6e:	ee00 4a10 	vmov	s0, r4
  72:	f8d1 4b98 	ldr.w	r4, [r1, #2968]	; 0xb98
  76:	1c5b      	adds	r3, r3, #1
  78:	eeb8 0ac0 	vcvt.f32.s32	s0, s0
  7c:	eb04 0485 	add.w	r4, r4, r5, lsl #2
  80:	b21b      	sxth	r3, r3
  82:	eec0 1a80 	vdiv.f32	s3, s1, s0
  86:	edc4 1a00 	vstr	s3, [r4]
  8a:	4563      	cmp	r3, ip
  8c:	dbe2      	blt.n	54 <Chk_Hr_Gt_Motion+0x54>
  8e:	2500      	movs	r5, #0
  90:	e0e4      	b.n	25c <Chk_Hr_Gt_Motion+0x25c>
  92:	bf00      	nop
  94:	eb00 0485 	add.w	r4, r0, r5, lsl #2
  98:	f642 63ac 	movw	r3, #11948	; 0x2eac
  9c:	4e8e      	ldr	r6, [pc, #568]	; (2d8 <Chk_Hr_Gt_Motion+0x2d8>)
  9e:	591b      	ldr	r3, [r3, r4]
  a0:	42b3      	cmp	r3, r6
  a2:	dd7d      	ble.n	1a0 <Chk_Hr_Gt_Motion+0x1a0>
  a4:	f504 5400 	add.w	r4, r4, #8192	; 0x2000
  a8:	f600 1384 	addw	r3, r0, #2436	; 0x984
  ac:	f8c4 3b90 	str.w	r3, [r4, #2960]	; 0xb90
  b0:	4613      	mov	r3, r2
  b2:	e030      	b.n	116 <Chk_Hr_Gt_Motion+0x116>
  b4:	ebc5 06c5 	rsb	r6, r5, r5, lsl #3
  b8:	ebc6 2605 	rsb	r6, r6, r5, lsl #8
  bc:	eb00 0686 	add.w	r6, r0, r6, lsl #2
  c0:	f506 5680 	add.w	r6, r6, #4096	; 0x1000
  c4:	f8d6 7dc0 	ldr.w	r7, [r6, #3520]	; 0xdc0
  c8:	f9b6 69f8 	ldrsh.w	r6, [r6, #2552]	; 0x9f8
  cc:	f857 8023 	ldr.w	r8, [r7, r3, lsl #2]
  d0:	f857 6026 	ldr.w	r6, [r7, r6, lsl #2]
  d4:	ee00 8a10 	vmov	s0, r8
  d8:	f8d4 7b90 	ldr.w	r7, [r4, #2960]	; 0xb90
  dc:	eef8 0ac0 	vcvt.f32.s32	s1, s0
  e0:	ee00 6a10 	vmov	s0, r6
  e4:	1a9e      	subs	r6, r3, r2
  e6:	eb07 0786 	add.w	r7, r7, r6, lsl #2
  ea:	eef8 1ac0 	vcvt.f32.s32	s3, s0
  ee:	1c5b      	adds	r3, r3, #1
  f0:	b21b      	sxth	r3, r3
  f2:	ee80 0aa1 	vdiv.f32	s0, s1, s3
  f6:	ed87 0a00 	vstr	s0, [r7]
  fa:	f8d4 7b90 	ldr.w	r7, [r4, #2960]	; 0xb90
  fe:	f8d1 8b98 	ldr.w	r8, [r1, #2968]	; 0xb98
 102:	eb07 0786 	add.w	r7, r7, r6, lsl #2
 106:	eb08 0686 	add.w	r6, r8, r6, lsl #2
 10a:	edd6 0a00 	vldr	s1, [r6]
 10e:	ee30 0a60 	vsub.f32	s0, s0, s1
 112:	ed87 0a00 	vstr	s0, [r7]
 116:	4563      	cmp	r3, ip
 118:	dbcc      	blt.n	b4 <Chk_Hr_Gt_Motion+0xb4>
 11a:	e000      	b.n	11e <Chk_Hr_Gt_Motion+0x11e>
 11c:	e09b      	b.n	256 <Chk_Hr_Gt_Motion+0x256>
 11e:	f9b1 3b30 	ldrsh.w	r3, [r1, #2864]	; 0xb30
 122:	469a      	mov	sl, r3
 124:	e040      	b.n	1a8 <Chk_Hr_Gt_Motion+0x1a8>
 126:	f8d4 6b90 	ldr.w	r6, [r4, #2960]	; 0xb90
 12a:	1a9f      	subs	r7, r3, r2
 12c:	eb06 0887 	add.w	r8, r6, r7, lsl #2
 130:	edd8 0a00 	vldr	s1, [r8]
 134:	f06f 0803 	mvn.w	r8, #3
 138:	eb08 0887 	add.w	r8, r8, r7, lsl #2
 13c:	44b0      	add	r8, r6
 13e:	ed98 0a00 	vldr	s0, [r8]
 142:	eef4 0ac0 	vcmpe.f32	s1, s0
 146:	eef1 fa10 	vmrs	APSR_nzcv, fpscr
 14a:	db0b      	blt.n	164 <Chk_Hr_Gt_Motion+0x164>
 14c:	f04f 0804 	mov.w	r8, #4
 150:	eb08 0887 	add.w	r8, r8, r7, lsl #2
 154:	44b0      	add	r8, r6
 156:	edd8 1a00 	vldr	s3, [r8]
 15a:	eef4 0ae1 	vcmpe.f32	s1, s3
 15e:	eef1 fa10 	vmrs	APSR_nzcv, fpscr
 162:	dc10      	bgt.n	186 <Chk_Hr_Gt_Motion+0x186>
 164:	eef4 0ac0 	vcmpe.f32	s1, s0
 168:	eef1 fa10 	vmrs	APSR_nzcv, fpscr
 16c:	dd1a      	ble.n	1a4 <Chk_Hr_Gt_Motion+0x1a4>
 16e:	f04f 0804 	mov.w	r8, #4
 172:	eb08 0787 	add.w	r7, r8, r7, lsl #2
 176:	443e      	add	r6, r7
 178:	ed96 0a00 	vldr	s0, [r6]
 17c:	eef4 0ac0 	vcmpe.f32	s1, s0
 180:	eef1 fa10 	vmrs	APSR_nzcv, fpscr
 184:	db0e      	blt.n	1a4 <Chk_Hr_Gt_Motion+0x1a4>
 186:	ee10 6a90 	vmov	r6, s1
 18a:	4f54      	ldr	r7, [pc, #336]	; (2dc <Chk_Hr_Gt_Motion+0x2dc>)
 18c:	42be      	cmp	r6, r7
 18e:	dd09      	ble.n	1a4 <Chk_Hr_Gt_Motion+0x1a4>
 190:	eef4 0ac1 	vcmpe.f32	s1, s2
 194:	eef1 fa10 	vmrs	APSR_nzcv, fpscr
 198:	dd04      	ble.n	1a4 <Chk_Hr_Gt_Motion+0x1a4>
 19a:	eeb0 1a60 	vmov.f32	s2, s1
 19e:	e000      	b.n	1a2 <Chk_Hr_Gt_Motion+0x1a2>
 1a0:	e04b      	b.n	23a <Chk_Hr_Gt_Motion+0x23a>
 1a2:	4699      	mov	r9, r3
 1a4:	1e5b      	subs	r3, r3, #1
 1a6:	b21b      	sxth	r3, r3
 1a8:	4293      	cmp	r3, r2
 1aa:	dcbc      	bgt.n	126 <Chk_Hr_Gt_Motion+0x126>
 1ac:	4653      	mov	r3, sl
 1ae:	e042      	b.n	236 <Chk_Hr_Gt_Motion+0x236>
 1b0:	f8d4 6b90 	ldr.w	r6, [r4, #2960]	; 0xb90
 1b4:	1a9f      	subs	r7, r3, r2
 1b6:	eb06 0887 	add.w	r8, r6, r7, lsl #2
 1ba:	46ba      	mov	sl, r7
 1bc:	ed98 0a00 	vldr	s0, [r8]
 1c0:	f06f 0803 	mvn.w	r8, #3
 1c4:	46b3      	mov	fp, r6
 1c6:	eb08 078a 	add.w	r7, r8, sl, lsl #2
 1ca:	443e      	add	r6, r7
 1cc:	edd6 0a00 	vldr	s1, [r6]
 1d0:	eeb4 0ae0 	vcmpe.f32	s0, s1
 1d4:	eef1 fa10 	vmrs	APSR_nzcv, fpscr
 1d8:	db0c      	blt.n	1f4 <Chk_Hr_Gt_Motion+0x1f4>
 1da:	f04f 0804 	mov.w	r8, #4
 1de:	eb08 078a 	add.w	r7, r8, sl, lsl #2
 1e2:	eb0b 0607 	add.w	r6, fp, r7
 1e6:	edd6 1a00 	vldr	s3, [r6]
 1ea:	eeb4 0ae1 	vcmpe.f32	s0, s3
 1ee:	eef1 fa10 	vmrs	APSR_nzcv, fpscr
 1f2:	dc11      	bgt.n	218 <Chk_Hr_Gt_Motion+0x218>
 1f4:	eeb4 0ae0 	vcmpe.f32	s0, s1
 1f8:	eef1 fa10 	vmrs	APSR_nzcv, fpscr
 1fc:	dd19      	ble.n	232 <Chk_Hr_Gt_Motion+0x232>
 1fe:	f04f 0804 	mov.w	r8, #4
 202:	eb08 078a 	add.w	r7, r8, sl, lsl #2
 206:	eb0b 0607 	add.w	r6, fp, r7
 20a:	edd6 0a00 	vldr	s1, [r6]
 20e:	eeb4 0ae0 	vcmpe.f32	s0, s1
 212:	eef1 fa10 	vmrs	APSR_nzcv, fpscr
 216:	db0c      	blt.n	232 <Chk_Hr_Gt_Motion+0x232>
 218:	ee10 6a10 	vmov	r6, s0
 21c:	4f2f      	ldr	r7, [pc, #188]	; (2dc <Chk_Hr_Gt_Motion+0x2dc>)
 21e:	42be      	cmp	r6, r7
 220:	dd07      	ble.n	232 <Chk_Hr_Gt_Motion+0x232>
 222:	eeb4 0ac1 	vcmpe.f32	s0, s2
 226:	eef1 fa10 	vmrs	APSR_nzcv, fpscr
 22a:	dd02      	ble.n	232 <Chk_Hr_Gt_Motion+0x232>
 22c:	eeb0 1a40 	vmov.f32	s2, s0
 230:	4699      	mov	r9, r3
 232:	1c5b      	adds	r3, r3, #1
 234:	b21b      	sxth	r3, r3
 236:	4563      	cmp	r3, ip
 238:	dbba      	blt.n	1b0 <Chk_Hr_Gt_Motion+0x1b0>
 23a:	f1b9 3fff 	cmp.w	r9, #4294967295	; 0xffffffff
 23e:	d00b      	beq.n	258 <Chk_Hr_Gt_Motion+0x258>
 240:	f9b1 2b12 	ldrsh.w	r2, [r1, #2834]	; 0xb12
 244:	454a      	cmp	r2, r9
 246:	dc0e      	bgt.n	266 <Chk_Hr_Gt_Motion+0x266>
 248:	2001      	movs	r0, #1
 24a:	f881 0b9c 	strb.w	r0, [r1, #2972]	; 0xb9c
 24e:	f8a1 9b12 	strh.w	r9, [r1, #2834]	; 0xb12
 252:	f881 ef19 	strb.w	lr, [r1, #3865]	; 0xf19
 256:	e006      	b.n	266 <Chk_Hr_Gt_Motion+0x266>
 258:	1c6d      	adds	r5, r5, #1
 25a:	b22d      	sxth	r5, r5
 25c:	f9b0 30bc 	ldrsh.w	r3, [r0, #188]	; 0xbc
 260:	42ab      	cmp	r3, r5
 262:	f73f af17 	bgt.w	94 <Chk_Hr_Gt_Motion+0x94>
 266:	f9b1 0b1e 	ldrsh.w	r0, [r1, #2846]	; 0xb1e
 26a:	281e      	cmp	r0, #30
 26c:	db0c      	blt.n	288 <Chk_Hr_Gt_Motion+0x288>
 26e:	f891 0b29 	ldrb.w	r0, [r1, #2857]	; 0xb29
 272:	b948      	cbnz	r0, 288 <Chk_Hr_Gt_Motion+0x288>
 274:	f891 0b28 	ldrb.w	r0, [r1, #2856]	; 0xb28
 278:	b930      	cbnz	r0, 288 <Chk_Hr_Gt_Motion+0x288>
 27a:	f9b1 0b30 	ldrsh.w	r0, [r1, #2864]	; 0xb30
 27e:	f9b1 2b34 	ldrsh.w	r2, [r1, #2868]	; 0xb34
 282:	1d40      	adds	r0, r0, #5
 284:	4282      	cmp	r2, r0
 286:	dc06      	bgt.n	296 <Chk_Hr_Gt_Motion+0x296>
 288:	f1b9 3fff 	cmp.w	r9, #4294967295	; 0xffffffff
 28c:	d120      	bne.n	2d0 <Chk_Hr_Gt_Motion+0x2d0>
 28e:	f891 0b5c 	ldrb.w	r0, [r1, #2908]	; 0xb5c
 292:	2801      	cmp	r0, #1
 294:	d11c      	bne.n	2d0 <Chk_Hr_Gt_Motion+0x2d0>
 296:	f8b1 0b84 	ldrh.w	r0, [r1, #2948]	; 0xb84
 29a:	2804      	cmp	r0, #4
 29c:	d118      	bne.n	2d0 <Chk_Hr_Gt_Motion+0x2d0>
 29e:	f9b1 0b14 	ldrsh.w	r0, [r1, #2836]	; 0xb14
 2a2:	f9b1 2b30 	ldrsh.w	r2, [r1, #2864]	; 0xb30
 2a6:	4290      	cmp	r0, r2
 2a8:	db12      	blt.n	2d0 <Chk_Hr_Gt_Motion+0x2d0>
 2aa:	f8d1 2b38 	ldr.w	r2, [r1, #2872]	; 0xb38
 2ae:	f8d1 3884 	ldr.w	r3, [r1, #2180]	; 0x884
 2b2:	1c54      	adds	r4, r2, #1
 2b4:	42a3      	cmp	r3, r4
 2b6:	dd0b      	ble.n	2d0 <Chk_Hr_Gt_Motion+0x2d0>
 2b8:	f9b1 4b34 	ldrsh.w	r4, [r1, #2868]	; 0xb34
 2bc:	1b04      	subs	r4, r0, r4
 2be:	00a4      	lsls	r4, r4, #2
 2c0:	1a9a      	subs	r2, r3, r2
 2c2:	fb94 f2f2 	sdiv	r2, r4, r2
 2c6:	4410      	add	r0, r2
 2c8:	f8a1 0b12 	strh.w	r0, [r1, #2834]	; 0xb12
 2cc:	f881 ef19 	strb.w	lr, [r1, #3865]	; 0xf19
 2d0:	e8bd 8ff0 	ldmia.w	sp!, {r4, r5, r6, r7, r8, r9, sl, fp, pc}
 2d4:	c61c3c00 	.word	0xc61c3c00
 2d8:	3f59999a 	.word	0x3f59999a
 2dc:	3ee66666 	.word	0x3ee66666

Disassembly of section i.Chk_Stay_In_Same_Hr:

00000000 <Chk_Stay_In_Same_Hr>:
   0:	e92d 47f0 	stmdb	sp!, {r4, r5, r6, r7, r8, r9, sl, lr}
   4:	f500 5400 	add.w	r4, r0, #8192	; 0x2000
   8:	4681      	mov	r9, r0
   a:	f9b4 0b84 	ldrsh.w	r0, [r4, #2948]	; 0xb84
   e:	f44f 6a80 	mov.w	sl, #1024	; 0x400
  12:	4656      	mov	r6, sl
  14:	2803      	cmp	r0, #3
  16:	db5a      	blt.n	ce <Chk_Stay_In_Same_Hr+0xce>
  18:	f899 001c 	ldrb.w	r0, [r9, #28]
  1c:	b247      	sxtb	r7, r0
  1e:	2000      	movs	r0, #0
  20:	e031      	b.n	86 <Chk_Stay_In_Same_Hr+0x86>
  22:	bf00      	nop
  24:	f8b4 0b14 	ldrh.w	r0, [r4, #2836]	; 0xb14
  28:	1bc0      	subs	r0, r0, r7
  2a:	b205      	sxth	r5, r0
  2c:	e023      	b.n	76 <Chk_Stay_In_Same_Hr+0x76>
  2e:	bf00      	nop
  30:	f9b4 1b30 	ldrsh.w	r1, [r4, #2864]	; 0xb30
  34:	4628      	mov	r0, r5
  36:	f7ff fffe 	bl	0 <Is_Motion_Peak>
  3a:	b9d0      	cbnz	r0, 72 <Chk_Stay_In_Same_Hr+0x72>
  3c:	4629      	mov	r1, r5
  3e:	4648      	mov	r0, r9
  40:	f7ff fffe 	bl	0 <Chk_Jump_To_Interference>
  44:	b9a8      	cbnz	r0, 72 <Chk_Stay_In_Same_Hr+0x72>
  46:	ebc8 01c8 	rsb	r1, r8, r8, lsl #3
  4a:	ebc1 2008 	rsb	r0, r1, r8, lsl #8
  4e:	eb09 0080 	add.w	r0, r9, r0, lsl #2
  52:	f500 5080 	add.w	r0, r0, #4096	; 0x1000
  56:	4629      	mov	r1, r5
  58:	f8d0 0dc0 	ldr.w	r0, [r0, #3520]	; 0xdc0
  5c:	f7ff fffe 	bl	0 <Is_p_Peak>
  60:	b138      	cbz	r0, 72 <Chk_Stay_In_Same_Hr+0x72>
  62:	f9b4 0b14 	ldrsh.w	r0, [r4, #2836]	; 0xb14
  66:	1b41      	subs	r1, r0, r5
  68:	d500      	bpl.n	6c <Chk_Stay_In_Same_Hr+0x6c>
  6a:	1a29      	subs	r1, r5, r0
  6c:	42b1      	cmp	r1, r6
  6e:	da00      	bge.n	72 <Chk_Stay_In_Same_Hr+0x72>
  70:	462e      	mov	r6, r5
  72:	1c6d      	adds	r5, r5, #1
  74:	b22d      	sxth	r5, r5
  76:	f9b4 0b14 	ldrsh.w	r0, [r4, #2836]	; 0xb14
  7a:	4438      	add	r0, r7
  7c:	42a8      	cmp	r0, r5
  7e:	dad7      	bge.n	30 <Chk_Stay_In_Same_Hr+0x30>
  80:	f108 0001 	add.w	r0, r8, #1
  84:	b200      	sxth	r0, r0
  86:	f9b9 10bc 	ldrsh.w	r1, [r9, #188]	; 0xbc
  8a:	4680      	mov	r8, r0
  8c:	4541      	cmp	r1, r8
  8e:	dcc9      	bgt.n	24 <Chk_Stay_In_Same_Hr+0x24>
  90:	4556      	cmp	r6, sl
  92:	d011      	beq.n	b8 <Chk_Stay_In_Same_Hr+0xb8>
  94:	2e00      	cmp	r6, #0
  96:	dd0f      	ble.n	b8 <Chk_Stay_In_Same_Hr+0xb8>
  98:	f9b4 0b14 	ldrsh.w	r0, [r4, #2836]	; 0xb14
  9c:	eef4 0a00 	vmov.f32	s1, #64	; 0x3e000000  0.125
  a0:	1a30      	subs	r0, r6, r0
  a2:	ee00 0a10 	vmov	s0, r0
  a6:	eeb8 0ac0 	vcvt.f32.s32	s0, s0
  aa:	ee20 0a20 	vmul.f32	s0, s0, s1
  ae:	eebd 0ac0 	vcvt.s32.f32	s0, s0
  b2:	ee10 0a10 	vmov	r0, s0
  b6:	e008      	b.n	ca <Chk_Stay_In_Same_Hr+0xca>
  b8:	f894 0b28 	ldrb.w	r0, [r4, #2856]	; 0xb28
  bc:	2801      	cmp	r0, #1
  be:	d004      	beq.n	ca <Chk_Stay_In_Same_Hr+0xca>
  c0:	f894 0b29 	ldrb.w	r0, [r4, #2857]	; 0xb29
  c4:	2801      	cmp	r0, #1
  c6:	d004      	beq.n	d2 <Chk_Stay_In_Same_Hr+0xd2>
  c8:	2000      	movs	r0, #0
  ca:	f884 0f3a 	strb.w	r0, [r4, #3898]	; 0xf3a
  ce:	e8bd 87f0 	ldmia.w	sp!, {r4, r5, r6, r7, r8, r9, sl, pc}
  d2:	20ff      	movs	r0, #255	; 0xff
  d4:	e7f9      	b.n	ca <Chk_Stay_In_Same_Hr+0xca>

Disassembly of section i.Constrain_Near_Motion_Big_Jmp_Up:

00000000 <Constrain_Near_Motion_Big_Jmp_Up>:
   0:	e92d 4ff0 	stmdb	sp!, {r4, r5, r6, r7, r8, r9, sl, fp, lr}
   4:	f500 5100 	add.w	r1, r0, #8192	; 0x2000
   8:	f9b1 2b1e 	ldrsh.w	r2, [r1, #2846]	; 0xb1e
   c:	2a32      	cmp	r2, #50	; 0x32
   e:	db5a      	blt.n	c6 <Constrain_Near_Motion_Big_Jmp_Up+0xc6>
  10:	f9b1 2b30 	ldrsh.w	r2, [r1, #2864]	; 0xb30
  14:	2a7d      	cmp	r2, #125	; 0x7d
  16:	db56      	blt.n	c6 <Constrain_Near_Motion_Big_Jmp_Up+0xc6>
  18:	f9b1 6b12 	ldrsh.w	r6, [r1, #2834]	; 0xb12
  1c:	f9b0 401c 	ldrsh.w	r4, [r0, #28]
  20:	1b93      	subs	r3, r2, r6
  22:	b21a      	sxth	r2, r3
  24:	42a3      	cmp	r3, r4
  26:	da4e      	bge.n	c6 <Constrain_Near_Motion_Big_Jmp_Up+0xc6>
  28:	2a00      	cmp	r2, #0
  2a:	db4c      	blt.n	c6 <Constrain_Near_Motion_Big_Jmp_Up+0xc6>
  2c:	f9b1 4b14 	ldrsh.w	r4, [r1, #2836]	; 0xb14
  30:	f04f 0900 	mov.w	r9, #0
  34:	1b32      	subs	r2, r6, r4
  36:	b215      	sxth	r5, r2
  38:	4637      	mov	r7, r6
  3a:	2d04      	cmp	r5, #4
  3c:	dd43      	ble.n	c6 <Constrain_Near_Motion_Big_Jmp_Up+0xc6>
  3e:	2300      	movs	r3, #0
  40:	f9b0 a0bc 	ldrsh.w	sl, [r0, #188]	; 0xbc
  44:	e02f      	b.n	a6 <Constrain_Near_Motion_Big_Jmp_Up+0xa6>
  46:	eb00 0c83 	add.w	ip, r0, r3, lsl #2
  4a:	f642 288c 	movw	r8, #10892	; 0x2a8c
  4e:	2200      	movs	r2, #0
  50:	f93c 8008 	ldrsh.w	r8, [ip, r8]
  54:	e023      	b.n	9e <Constrain_Near_Motion_Big_Jmp_Up+0x9e>
  56:	bf00      	nop
  58:	eb03 0b43 	add.w	fp, r3, r3, lsl #1
  5c:	eb00 0c4b 	add.w	ip, r0, fp, lsl #1
  60:	4494      	add	ip, r2
  62:	f50c 5c00 	add.w	ip, ip, #8192	; 0x2000
  66:	f89c caac 	ldrb.w	ip, [ip, #2732]	; 0xaac
  6a:	f1bc 0f00 	cmp.w	ip, #0
  6e:	d114      	bne.n	9a <Constrain_Near_Motion_Big_Jmp_Up+0x9a>
  70:	eb00 0c8b 	add.w	ip, r0, fp, lsl #2
  74:	eb0c 0c42 	add.w	ip, ip, r2, lsl #1
  78:	f642 2b94 	movw	fp, #10900	; 0x2a94
  7c:	f93c b00b 	ldrsh.w	fp, [ip, fp]
  80:	ebbb 0c04 	subs.w	ip, fp, r4
  84:	d501      	bpl.n	8a <Constrain_Near_Motion_Big_Jmp_Up+0x8a>
  86:	eba4 0c0b 	sub.w	ip, r4, fp
  8a:	fa0f fc8c 	sxth.w	ip, ip
  8e:	45ac      	cmp	ip, r5
  90:	da03      	bge.n	9a <Constrain_Near_Motion_Big_Jmp_Up+0x9a>
  92:	4665      	mov	r5, ip
  94:	465f      	mov	r7, fp
  96:	f04f 0901 	mov.w	r9, #1
  9a:	1c52      	adds	r2, r2, #1
  9c:	b212      	sxth	r2, r2
  9e:	4590      	cmp	r8, r2
  a0:	dcda      	bgt.n	58 <Constrain_Near_Motion_Big_Jmp_Up+0x58>
  a2:	1c5b      	adds	r3, r3, #1
  a4:	b21b      	sxth	r3, r3
  a6:	459a      	cmp	sl, r3
  a8:	dccd      	bgt.n	46 <Constrain_Near_Motion_Big_Jmp_Up+0x46>
  aa:	1eb6      	subs	r6, r6, #2
  ac:	42be      	cmp	r6, r7
  ae:	dc02      	bgt.n	b6 <Constrain_Near_Motion_Big_Jmp_Up+0xb6>
  b0:	f1b9 0f01 	cmp.w	r9, #1
  b4:	d009      	beq.n	ca <Constrain_Near_Motion_Big_Jmp_Up+0xca>
  b6:	f8a1 4b12 	strh.w	r4, [r1, #2834]	; 0xb12
  ba:	f1b9 0f00 	cmp.w	r9, #0
  be:	d102      	bne.n	c6 <Constrain_Near_Motion_Big_Jmp_Up+0xc6>
  c0:	1c64      	adds	r4, r4, #1
  c2:	f8a1 4b12 	strh.w	r4, [r1, #2834]	; 0xb12
  c6:	e8bd 8ff0 	ldmia.w	sp!, {r4, r5, r6, r7, r8, r9, sl, fp, pc}
  ca:	f8a1 7b12 	strh.w	r7, [r1, #2834]	; 0xb12
  ce:	e7fa      	b.n	c6 <Constrain_Near_Motion_Big_Jmp_Up+0xc6>

Disassembly of section i.Copy_Prev_Data:

00000000 <Copy_Prev_Data>:
   0:	b570      	push	{r4, r5, r6, lr}
   2:	2100      	movs	r1, #0
   4:	e046      	b.n	94 <Copy_Prev_Data+0x94>
   6:	bf00      	nop
   8:	eb01 0541 	add.w	r5, r1, r1, lsl #1
   c:	eb00 0245 	add.w	r2, r0, r5, lsl #1
  10:	f502 5228 	add.w	r2, r2, #10752	; 0x2a00
  14:	6993      	ldr	r3, [r2, #24]
  16:	6253      	str	r3, [r2, #36]	; 0x24
  18:	8b93      	ldrh	r3, [r2, #28]
  1a:	8513      	strh	r3, [r2, #40]	; 0x28
  1c:	ebc1 03c1 	rsb	r3, r1, r1, lsl #3
  20:	ebc3 2301 	rsb	r3, r3, r1, lsl #8
  24:	eb00 0483 	add.w	r4, r0, r3, lsl #2
  28:	f504 53cc 	add.w	r3, r4, #6528	; 0x1980
  2c:	f504 5480 	add.w	r4, r4, #4096	; 0x1000
  30:	6f9e      	ldr	r6, [r3, #120]	; 0x78
  32:	6196      	str	r6, [r2, #24]
  34:	f8b3 307c 	ldrh.w	r3, [r3, #124]	; 0x7c
  38:	8393      	strh	r3, [r2, #28]
  3a:	182b      	adds	r3, r5, r0
  3c:	f503 5228 	add.w	r2, r3, #10752	; 0x2a00
  40:	f503 532a 	add.w	r3, r3, #10880	; 0x2a80
  44:	f832 6f30 	ldrh.w	r6, [r2, #48]!
  48:	80d6      	strh	r6, [r2, #6]
  4a:	7896      	ldrb	r6, [r2, #2]
  4c:	7216      	strb	r6, [r2, #8]
  4e:	8f1e      	ldrh	r6, [r3, #56]	; 0x38
  50:	8016      	strh	r6, [r2, #0]
  52:	f893 303a 	ldrb.w	r3, [r3, #58]	; 0x3a
  56:	7093      	strb	r3, [r2, #2]
  58:	eb00 0285 	add.w	r2, r0, r5, lsl #2
  5c:	f602 225c 	addw	r2, r2, #2652	; 0xa5c
  60:	f502 5200 	add.w	r2, r2, #8192	; 0x2000
  64:	e892 0068 	ldmia.w	r2, {r3, r5, r6}
  68:	3218      	adds	r2, #24
  6a:	e882 0068 	stmia.w	r2, {r3, r5, r6}
  6e:	3a30      	subs	r2, #48	; 0x30
  70:	e892 0068 	ldmia.w	r2, {r3, r5, r6}
  74:	3218      	adds	r2, #24
  76:	e882 0068 	stmia.w	r2, {r3, r5, r6}
  7a:	eb00 0241 	add.w	r2, r0, r1, lsl #1
  7e:	f602 223c 	addw	r2, r2, #2620	; 0xa3c
  82:	f502 5200 	add.w	r2, r2, #8192	; 0x2000
  86:	1c49      	adds	r1, r1, #1
  88:	8813      	ldrh	r3, [r2, #0]
  8a:	8093      	strh	r3, [r2, #4]
  8c:	f8b4 39fe 	ldrh.w	r3, [r4, #2558]	; 0x9fe
  90:	8013      	strh	r3, [r2, #0]
  92:	b209      	sxth	r1, r1
  94:	f9b0 20bc 	ldrsh.w	r2, [r0, #188]	; 0xbc
  98:	428a      	cmp	r2, r1
  9a:	dcb5      	bgt.n	8 <Copy_Prev_Data+0x8>
  9c:	f500 5000 	add.w	r0, r0, #8192	; 0x2000
  a0:	f8b0 11c0 	ldrh.w	r1, [r0, #448]	; 0x1c0
  a4:	f8a0 1b20 	strh.w	r1, [r0, #2848]	; 0xb20
  a8:	f890 1b29 	ldrb.w	r1, [r0, #2857]	; 0xb29
  ac:	f880 1b5b 	strb.w	r1, [r0, #2907]	; 0xb5b
  b0:	f890 1b28 	ldrb.w	r1, [r0, #2856]	; 0xb28
  b4:	f880 1b5a 	strb.w	r1, [r0, #2906]	; 0xb5a
  b8:	f8d0 187c 	ldr.w	r1, [r0, #2172]	; 0x87c
  bc:	f8c0 1880 	str.w	r1, [r0, #2176]	; 0x880
  c0:	bd70      	pop	{r4, r5, r6, pc}

Disassembly of section i.Judge_Activity_From_Motion_idx:

00000000 <Judge_Activity_From_Motion_idx>:
   0:	b570      	push	{r4, r5, r6, lr}
   2:	4605      	mov	r5, r0
   4:	f500 5030 	add.w	r0, r0, #11264	; 0x2c00
   8:	edd5 0a0d 	vldr	s1, [r5, #52]	; 0x34
   c:	ed90 0aaf 	vldr	s0, [r0, #700]	; 0x2bc
  10:	f505 5400 	add.w	r4, r5, #8192	; 0x2000
  14:	eeb4 0ae0 	vcmpe.f32	s0, s1
  18:	f9b4 0f14 	ldrsh.w	r0, [r4, #3860]	; 0xf14
  1c:	eef1 fa10 	vmrs	APSR_nzcv, fpscr
  20:	dd07      	ble.n	32 <Judge_Activity_From_Motion_idx+0x32>
  22:	1c40      	adds	r0, r0, #1
  24:	b200      	sxth	r0, r0
  26:	f8a4 0f14 	strh.w	r0, [r4, #3860]	; 0xf14
  2a:	2805      	cmp	r0, #5
  2c:	dd06      	ble.n	3c <Judge_Activity_From_Motion_idx+0x3c>
  2e:	2005      	movs	r0, #5
  30:	e002      	b.n	38 <Judge_Activity_From_Motion_idx+0x38>
  32:	2800      	cmp	r0, #0
  34:	dd02      	ble.n	3c <Judge_Activity_From_Motion_idx+0x3c>
  36:	1e40      	subs	r0, r0, #1
  38:	f8a4 0f14 	strh.w	r0, [r4, #3860]	; 0xf14
  3c:	f8d5 10b0 	ldr.w	r1, [r5, #176]	; 0xb0
  40:	f8d4 087c 	ldr.w	r0, [r4, #2172]	; 0x87c
  44:	eb01 0141 	add.w	r1, r1, r1, lsl #1
  48:	4288      	cmp	r0, r1
  4a:	dd35      	ble.n	b8 <Judge_Activity_From_Motion_idx+0xb8>
  4c:	f9b4 0b1e 	ldrsh.w	r0, [r4, #2846]	; 0xb1e
  50:	2803      	cmp	r0, #3
  52:	dd12      	ble.n	7a <Judge_Activity_From_Motion_idx+0x7a>
  54:	f9b4 0f14 	ldrsh.w	r0, [r4, #3860]	; 0xf14
  58:	2805      	cmp	r0, #5
  5a:	db0e      	blt.n	7a <Judge_Activity_From_Motion_idx+0x7a>
  5c:	f9b4 0b30 	ldrsh.w	r0, [r4, #2864]	; 0xb30
  60:	f8b5 10fa 	ldrh.w	r1, [r5, #250]	; 0xfa
  64:	4288      	cmp	r0, r1
  66:	da04      	bge.n	72 <Judge_Activity_From_Motion_idx+0x72>
  68:	f05f 0001 	movs.w	r0, #1
  6c:	f884 0f0f 	strb.w	r0, [r4, #3855]	; 0xf0f
  70:	e007      	b.n	82 <Judge_Activity_From_Motion_idx+0x82>
  72:	f894 0b28 	ldrb.w	r0, [r4, #2856]	; 0xb28
  76:	2801      	cmp	r0, #1
  78:	d011      	beq.n	9e <Judge_Activity_From_Motion_idx+0x9e>
  7a:	f894 0f0f 	ldrb.w	r0, [r4, #3855]	; 0xf0f
  7e:	2802      	cmp	r0, #2
  80:	d010      	beq.n	a4 <Judge_Activity_From_Motion_idx+0xa4>
  82:	2101      	movs	r1, #1
  84:	4628      	mov	r0, r5
  86:	f7ff fffe 	bl	0 <HR8002_Set_En_LWPS>
  8a:	2101      	movs	r1, #1
  8c:	4628      	mov	r0, r5
  8e:	f7ff fffe 	bl	0 <HR8002_Set_En_Judge_Walk>
  92:	2101      	movs	r1, #1
  94:	4628      	mov	r0, r5
  96:	e8bd 4070 	ldmia.w	sp!, {r4, r5, r6, lr}
  9a:	f7ff bffe 	b.w	0 <HR8002_Set_En_MA_Walk>
  9e:	2002      	movs	r0, #2
  a0:	f884 0f0f 	strb.w	r0, [r4, #3855]	; 0xf0f
  a4:	2100      	movs	r1, #0
  a6:	4628      	mov	r0, r5
  a8:	f7ff fffe 	bl	0 <HR8002_Set_En_LWPS>
  ac:	2100      	movs	r1, #0
  ae:	4628      	mov	r0, r5
  b0:	f7ff fffe 	bl	0 <HR8002_Set_En_Judge_Walk>
  b4:	2100      	movs	r1, #0
  b6:	e7ed      	b.n	94 <Judge_Activity_From_Motion_idx+0x94>
  b8:	2000      	movs	r0, #0
  ba:	e7d7      	b.n	6c <Judge_Activity_From_Motion_idx+0x6c>

Disassembly of section i.Log_Double_Harmonic_Confirm_Frm:

00000000 <Log_Double_Harmonic_Confirm_Frm>:
   0:	e92d 5ff0 	stmdb	sp!, {r4, r5, r6, r7, r8, r9, sl, fp, ip, lr}
   4:	f500 5400 	add.w	r4, r0, #8192	; 0x2000
   8:	4605      	mov	r5, r0
   a:	f894 0951 	ldrb.w	r0, [r4, #2385]	; 0x951
   e:	b128      	cbz	r0, 1c <Log_Double_Harmonic_Confirm_Frm+0x1c>
  10:	2801      	cmp	r0, #1
  12:	d17d      	bne.n	110 <Log_Double_Harmonic_Confirm_Frm+0x110>
  14:	f894 0b52 	ldrb.w	r0, [r4, #2898]	; 0xb52
  18:	2800      	cmp	r0, #0
  1a:	d179      	bne.n	110 <Log_Double_Harmonic_Confirm_Frm+0x110>
  1c:	f9b4 099e 	ldrsh.w	r0, [r4, #2462]	; 0x99e
  20:	2800      	cmp	r0, #0
  22:	dd20      	ble.n	66 <Log_Double_Harmonic_Confirm_Frm+0x66>
  24:	f9b4 09e8 	ldrsh.w	r0, [r4, #2536]	; 0x9e8
  28:	2803      	cmp	r0, #3
  2a:	da04      	bge.n	36 <Log_Double_Harmonic_Confirm_Frm+0x36>
  2c:	4628      	mov	r0, r5
  2e:	f7ff fffe 	bl	0 <Valid_1ch_Check>
  32:	2801      	cmp	r0, #1
  34:	d117      	bne.n	66 <Log_Double_Harmonic_Confirm_Frm+0x66>
  36:	f9b4 1b12 	ldrsh.w	r1, [r4, #2834]	; 0xb12
  3a:	f9b4 099e 	ldrsh.w	r0, [r4, #2462]	; 0x99e
  3e:	1a0a      	subs	r2, r1, r0
  40:	d500      	bpl.n	44 <Log_Double_Harmonic_Confirm_Frm+0x44>
  42:	1a42      	subs	r2, r0, r1
  44:	f9b5 3010 	ldrsh.w	r3, [r5, #16]
  48:	1c9b      	adds	r3, r3, #2
  4a:	429a      	cmp	r2, r3
  4c:	db07      	blt.n	5e <Log_Double_Harmonic_Confirm_Frm+0x5e>
  4e:	4242      	negs	r2, r0
  50:	eb11 0242 	adds.w	r2, r1, r2, lsl #1
  54:	d501      	bpl.n	5a <Log_Double_Harmonic_Confirm_Frm+0x5a>
  56:	ebc1 0240 	rsb	r2, r1, r0, lsl #1
  5a:	429a      	cmp	r2, r3
  5c:	da03      	bge.n	66 <Log_Double_Harmonic_Confirm_Frm+0x66>
  5e:	f8d4 0884 	ldr.w	r0, [r4, #2180]	; 0x884
  62:	f8c4 0b8c 	str.w	r0, [r4, #2956]	; 0xb8c
  66:	f8d4 1b8c 	ldr.w	r1, [r4, #2956]	; 0xb8c
  6a:	f8d4 0884 	ldr.w	r0, [r4, #2180]	; 0x884
  6e:	1a40      	subs	r0, r0, r1
  70:	2819      	cmp	r0, #25
  72:	da66      	bge.n	142 <Log_Double_Harmonic_Confirm_Frm+0x142>
  74:	f9b4 09e8 	ldrsh.w	r0, [r4, #2536]	; 0x9e8
  78:	2803      	cmp	r0, #3
  7a:	da62      	bge.n	142 <Log_Double_Harmonic_Confirm_Frm+0x142>
  7c:	f9b4 1b12 	ldrsh.w	r1, [r4, #2834]	; 0xb12
  80:	f9b4 3b14 	ldrsh.w	r3, [r4, #2836]	; 0xb14
  84:	1ac8      	subs	r0, r1, r3
  86:	d500      	bpl.n	8a <Log_Double_Harmonic_Confirm_Frm+0x8a>
  88:	1a58      	subs	r0, r3, r1
  8a:	2200      	movs	r2, #0
  8c:	b201      	sxth	r1, r0
  8e:	4693      	mov	fp, r2
  90:	f9b5 70bc 	ldrsh.w	r7, [r5, #188]	; 0xbc
  94:	e053      	b.n	13e <Log_Double_Harmonic_Confirm_Frm+0x13e>
  96:	ebc2 06c2 	rsb	r6, r2, r2, lsl #3
  9a:	ebc6 2602 	rsb	r6, r6, r2, lsl #8
  9e:	eb05 0886 	add.w	r8, r5, r6, lsl #2
  a2:	2000      	movs	r0, #0
  a4:	f508 5680 	add.w	r6, r8, #4096	; 0x1000
  a8:	e043      	b.n	132 <Log_Double_Harmonic_Confirm_Frm+0x132>
  aa:	bf00      	nop
  ac:	eb02 0c42 	add.w	ip, r2, r2, lsl #1
  b0:	44ac      	add	ip, r5
  b2:	4484      	add	ip, r0
  b4:	f50c 5c00 	add.w	ip, ip, #8192	; 0x2000
  b8:	f89c cab8 	ldrb.w	ip, [ip, #2744]	; 0xab8
  bc:	f1bc 0f00 	cmp.w	ip, #0
  c0:	d135      	bne.n	12e <Log_Double_Harmonic_Confirm_Frm+0x12e>
  c2:	eb08 0c40 	add.w	ip, r8, r0, lsl #1
  c6:	f50c 5980 	add.w	r9, ip, #4096	; 0x1000
  ca:	f9b9 a9f8 	ldrsh.w	sl, [r9, #2552]	; 0x9f8
  ce:	ebba 0c03 	subs.w	ip, sl, r3
  d2:	d501      	bpl.n	d8 <Log_Double_Harmonic_Confirm_Frm+0xd8>
  d4:	eba3 0c0a 	sub.w	ip, r3, sl
  d8:	fa0f fc8c 	sxth.w	ip, ip
  dc:	458c      	cmp	ip, r1
  de:	da09      	bge.n	f4 <Log_Double_Harmonic_Confirm_Frm+0xf4>
  e0:	f1bc 0f05 	cmp.w	ip, #5
  e4:	da06      	bge.n	f4 <Log_Double_Harmonic_Confirm_Frm+0xf4>
  e6:	f8a4 ab12 	strh.w	sl, [r4, #2834]	; 0xb12
  ea:	f884 bf19 	strb.w	fp, [r4, #3865]	; 0xf19
  ee:	4661      	mov	r1, ip
  f0:	2f01      	cmp	r7, #1
  f2:	d022      	beq.n	13a <Log_Double_Harmonic_Confirm_Frm+0x13a>
  f4:	f9b9 c9f8 	ldrsh.w	ip, [r9, #2552]	; 0x9f8
  f8:	eb0c 79dc 	add.w	r9, ip, ip, lsr #31
  fc:	ebc3 0c69 	rsb	ip, r3, r9, asr #1
 100:	f1bc 0f00 	cmp.w	ip, #0
 104:	d501      	bpl.n	10a <Log_Double_Harmonic_Confirm_Frm+0x10a>
 106:	eba3 0c69 	sub.w	ip, r3, r9, asr #1
 10a:	fa0f fc8c 	sxth.w	ip, ip
 10e:	e000      	b.n	112 <Log_Double_Harmonic_Confirm_Frm+0x112>
 110:	e017      	b.n	142 <Log_Double_Harmonic_Confirm_Frm+0x142>
 112:	458c      	cmp	ip, r1
 114:	da0b      	bge.n	12e <Log_Double_Harmonic_Confirm_Frm+0x12e>
 116:	f1bc 0f05 	cmp.w	ip, #5
 11a:	da08      	bge.n	12e <Log_Double_Harmonic_Confirm_Frm+0x12e>
 11c:	ea4f 0169 	mov.w	r1, r9, asr #1
 120:	f8a4 1b12 	strh.w	r1, [r4, #2834]	; 0xb12
 124:	f884 bf19 	strb.w	fp, [r4, #3865]	; 0xf19
 128:	4661      	mov	r1, ip
 12a:	2f01      	cmp	r7, #1
 12c:	d005      	beq.n	13a <Log_Double_Harmonic_Confirm_Frm+0x13a>
 12e:	1c40      	adds	r0, r0, #1
 130:	b200      	sxth	r0, r0
 132:	f9b6 c9fe 	ldrsh.w	ip, [r6, #2558]	; 0x9fe
 136:	4584      	cmp	ip, r0
 138:	dcb8      	bgt.n	ac <Log_Double_Harmonic_Confirm_Frm+0xac>
 13a:	1c52      	adds	r2, r2, #1
 13c:	b212      	sxth	r2, r2
 13e:	4297      	cmp	r7, r2
 140:	dca9      	bgt.n	96 <Log_Double_Harmonic_Confirm_Frm+0x96>
 142:	e8bd 9ff0 	ldmia.w	sp!, {r4, r5, r6, r7, r8, r9, sl, fp, ip, pc}

Disassembly of section i.Peak_Idx_Mask:

00000000 <Peak_Idx_Mask>:
   0:	e92d 4ff0 	stmdb	sp!, {r4, r5, r6, r7, r8, r9, sl, fp, lr}
   4:	4605      	mov	r5, r0
   6:	b087      	sub	sp, #28
   8:	4691      	mov	r9, r2
   a:	469a      	mov	sl, r3
   c:	460f      	mov	r7, r1
   e:	4618      	mov	r0, r3
  10:	f7ff fffe 	bl	0 <__aeabi_memclr>
  14:	f505 5400 	add.w	r4, r5, #8192	; 0x2000
  18:	f04f 0b00 	mov.w	fp, #0
  1c:	f894 0b46 	ldrb.w	r0, [r4, #2886]	; 0xb46
  20:	2801      	cmp	r0, #1
  22:	d17c      	bne.n	11e <Peak_Idx_Mask+0x11e>
  24:	f04f 0800 	mov.w	r8, #0
  28:	4646      	mov	r6, r8
  2a:	e0b1      	b.n	190 <Peak_Idx_Mask+0x190>
  2c:	aa04      	add	r2, sp, #16
  2e:	a906      	add	r1, sp, #24
  30:	a803      	add	r0, sp, #12
  32:	e88d 0007 	stmia.w	sp, {r0, r1, r2}
  36:	f9b5 2016 	ldrsh.w	r2, [r5, #22]
  3a:	f9b4 1b44 	ldrsh.w	r1, [r4, #2884]	; 0xb44
  3e:	f939 0016 	ldrsh.w	r0, [r9, r6, lsl #1]
  42:	ab05      	add	r3, sp, #20
  44:	f7ff fffe 	bl	0 <Check_Harmonic>
  48:	f894 1b29 	ldrb.w	r1, [r4, #2857]	; 0xb29
  4c:	2901      	cmp	r1, #1
  4e:	d128      	bne.n	a2 <Peak_Idx_Mask+0xa2>
  50:	bb38      	cbnz	r0, a2 <Peak_Idx_Mask+0xa2>
  52:	f9b4 1b44 	ldrsh.w	r1, [r4, #2884]	; 0xb44
  56:	f9b4 3b12 	ldrsh.w	r3, [r4, #2834]	; 0xb12
  5a:	eb01 0281 	add.w	r2, r1, r1, lsl #2
  5e:	ea4f 7ce2 	mov.w	ip, r2, asr #31
  62:	eb02 7c9c 	add.w	ip, r2, ip, lsr #30
  66:	ebb3 0fac 	cmp.w	r3, ip, asr #2
  6a:	dd1a      	ble.n	a2 <Peak_Idx_Mask+0xa2>
  6c:	f939 2016 	ldrsh.w	r2, [r9, r6, lsl #1]
  70:	ebb2 0fac 	cmp.w	r2, ip, asr #2
  74:	dd15      	ble.n	a2 <Peak_Idx_Mask+0xa2>
  76:	295a      	cmp	r1, #90	; 0x5a
  78:	dd13      	ble.n	a2 <Peak_Idx_Mask+0xa2>
  7a:	2303      	movs	r3, #3
  7c:	fb92 fcf3 	sdiv	ip, r2, r3
  80:	fb92 f2f3 	sdiv	r2, r2, r3
  84:	eb01 71d1 	add.w	r1, r1, r1, lsr #31
  88:	ebac 0c61 	sub.w	ip, ip, r1, asr #1
  8c:	f1bc 0f00 	cmp.w	ip, #0
  90:	d502      	bpl.n	98 <Peak_Idx_Mask+0x98>
  92:	ebc2 0161 	rsb	r1, r2, r1, asr #1
  96:	e001      	b.n	9c <Peak_Idx_Mask+0x9c>
  98:	eba2 0161 	sub.w	r1, r2, r1, asr #1
  9c:	2903      	cmp	r1, #3
  9e:	da00      	bge.n	a2 <Peak_Idx_Mask+0xa2>
  a0:	2001      	movs	r0, #1
  a2:	f9b4 11c2 	ldrsh.w	r1, [r4, #450]	; 0x1c2
  a6:	f8d4 3588 	ldr.w	r3, [r4, #1416]	; 0x588
  aa:	f853 2021 	ldr.w	r2, [r3, r1, lsl #2]
  ae:	ee00 2a10 	vmov	s0, r2
  b2:	f9b4 21c0 	ldrsh.w	r2, [r4, #448]	; 0x1c0
  b6:	eef8 0ac0 	vcvt.f32.s32	s1, s0
  ba:	f853 3022 	ldr.w	r3, [r3, r2, lsl #2]
  be:	ee00 3a10 	vmov	s0, r3
  c2:	eeb8 1ac0 	vcvt.f32.s32	s2, s0
  c6:	ed9f 0a77 	vldr	s0, [pc, #476]	; 2a4 <Peak_Idx_Mask+0x2a4>
  ca:	ee21 0a00 	vmul.f32	s0, s2, s0
  ce:	eef4 0ac0 	vcmpe.f32	s1, s0
  d2:	eef1 fa10 	vmrs	APSR_nzcv, fpscr
  d6:	dd13      	ble.n	100 <Peak_Idx_Mask+0x100>
  d8:	1a8b      	subs	r3, r1, r2
  da:	d500      	bpl.n	de <Peak_Idx_Mask+0xde>
  dc:	1a53      	subs	r3, r2, r1
  de:	f9b5 2016 	ldrsh.w	r2, [r5, #22]
  e2:	f102 0c01 	add.w	ip, r2, #1
  e6:	4563      	cmp	r3, ip
  e8:	da0a      	bge.n	100 <Peak_Idx_Mask+0x100>
  ea:	f10d 0c10 	add.w	ip, sp, #16
  ee:	ab06      	add	r3, sp, #24
  f0:	a803      	add	r0, sp, #12
  f2:	e88d 1009 	stmia.w	sp, {r0, r3, ip}
  f6:	f939 0016 	ldrsh.w	r0, [r9, r6, lsl #1]
  fa:	ab05      	add	r3, sp, #20
  fc:	f7ff fffe 	bl	0 <Check_Harmonic>
 100:	2801      	cmp	r0, #1
 102:	d143      	bne.n	18c <Peak_Idx_Mask+0x18c>
 104:	f9bd 0014 	ldrsh.w	r0, [sp, #20]
 108:	2802      	cmp	r0, #2
 10a:	d105      	bne.n	118 <Peak_Idx_Mask+0x118>
 10c:	f9b5 1016 	ldrsh.w	r1, [r5, #22]
 110:	f9bd 200c 	ldrsh.w	r2, [sp, #12]
 114:	4291      	cmp	r1, r2
 116:	dc0c      	bgt.n	132 <Peak_Idx_Mask+0x132>
 118:	2801      	cmp	r0, #1
 11a:	d10c      	bne.n	136 <Peak_Idx_Mask+0x136>
 11c:	e000      	b.n	120 <Peak_Idx_Mask+0x120>
 11e:	e070      	b.n	202 <Peak_Idx_Mask+0x202>
 120:	f9bd 1010 	ldrsh.w	r1, [sp, #16]
 124:	f9bd 200c 	ldrsh.w	r2, [sp, #12]
 128:	1a89      	subs	r1, r1, r2
 12a:	f9b5 2016 	ldrsh.w	r2, [r5, #22]
 12e:	4291      	cmp	r1, r2
 130:	da01      	bge.n	136 <Peak_Idx_Mask+0x136>
 132:	f04f 0b01 	mov.w	fp, #1
 136:	2803      	cmp	r0, #3
 138:	d105      	bne.n	146 <Peak_Idx_Mask+0x146>
 13a:	f9b5 1016 	ldrsh.w	r1, [r5, #22]
 13e:	f9bd 200c 	ldrsh.w	r2, [sp, #12]
 142:	4291      	cmp	r1, r2
 144:	dc07      	bgt.n	156 <Peak_Idx_Mask+0x156>
 146:	2802      	cmp	r0, #2
 148:	d113      	bne.n	172 <Peak_Idx_Mask+0x172>
 14a:	f9b5 1016 	ldrsh.w	r1, [r5, #22]
 14e:	f9bd 000c 	ldrsh.w	r0, [sp, #12]
 152:	4281      	cmp	r1, r0
 154:	da0d      	bge.n	172 <Peak_Idx_Mask+0x172>
 156:	f939 1016 	ldrsh.w	r1, [r9, r6, lsl #1]
 15a:	f9b4 21c0 	ldrsh.w	r2, [r4, #448]	; 0x1c0
 15e:	1a88      	subs	r0, r1, r2
 160:	d500      	bpl.n	164 <Peak_Idx_Mask+0x164>
 162:	1a50      	subs	r0, r2, r1
 164:	f9b5 2016 	ldrsh.w	r2, [r5, #22]
 168:	4290      	cmp	r0, r2
 16a:	db08      	blt.n	17e <Peak_Idx_Mask+0x17e>
 16c:	29c8      	cmp	r1, #200	; 0xc8
 16e:	dc06      	bgt.n	17e <Peak_Idx_Mask+0x17e>
 170:	e00c      	b.n	18c <Peak_Idx_Mask+0x18c>
 172:	f9b4 0b1e 	ldrsh.w	r0, [r4, #2846]	; 0xb1e
 176:	f9b5 1018 	ldrsh.w	r1, [r5, #24]
 17a:	4288      	cmp	r0, r1
 17c:	db06      	blt.n	18c <Peak_Idx_Mask+0x18c>
 17e:	2001      	movs	r0, #1
 180:	f80a 0006 	strb.w	r0, [sl, r6]
 184:	f108 0001 	add.w	r0, r8, #1
 188:	fa0f f880 	sxth.w	r8, r0
 18c:	1c76      	adds	r6, r6, #1
 18e:	b236      	sxth	r6, r6
 190:	42be      	cmp	r6, r7
 192:	f6ff af4b 	blt.w	2c <Peak_Idx_Mask+0x2c>
 196:	f1b8 0f03 	cmp.w	r8, #3
 19a:	d002      	beq.n	1a2 <Peak_Idx_Mask+0x1a2>
 19c:	f1bb 0f01 	cmp.w	fp, #1
 1a0:	d12f      	bne.n	202 <Peak_Idx_Mask+0x202>
 1a2:	2000      	movs	r0, #0
 1a4:	4684      	mov	ip, r0
 1a6:	e02a      	b.n	1fe <Peak_Idx_Mask+0x1fe>
 1a8:	f939 1010 	ldrsh.w	r1, [r9, r0, lsl #1]
 1ac:	2303      	movs	r3, #3
 1ae:	fb91 f8f3 	sdiv	r8, r1, r3
 1b2:	fb91 f3f3 	sdiv	r3, r1, r3
 1b6:	f9b4 2b44 	ldrsh.w	r2, [r4, #2884]	; 0xb44
 1ba:	eb02 76d2 	add.w	r6, r2, r2, lsr #31
 1be:	eba8 0866 	sub.w	r8, r8, r6, asr #1
 1c2:	f1b8 0f00 	cmp.w	r8, #0
 1c6:	d502      	bpl.n	1ce <Peak_Idx_Mask+0x1ce>
 1c8:	ebc3 0366 	rsb	r3, r3, r6, asr #1
 1cc:	e001      	b.n	1d2 <Peak_Idx_Mask+0x1d2>
 1ce:	eba3 0366 	sub.w	r3, r3, r6, asr #1
 1d2:	2b03      	cmp	r3, #3
 1d4:	db0f      	blt.n	1f6 <Peak_Idx_Mask+0x1f6>
 1d6:	f9b4 3b14 	ldrsh.w	r3, [r4, #2836]	; 0xb14
 1da:	1acb      	subs	r3, r1, r3
 1dc:	1cdb      	adds	r3, r3, #3
 1de:	2b06      	cmp	r3, #6
 1e0:	d80b      	bhi.n	1fa <Peak_Idx_Mask+0x1fa>
 1e2:	f894 3b5c 	ldrb.w	r3, [r4, #2908]	; 0xb5c
 1e6:	b943      	cbnz	r3, 1fa <Peak_Idx_Mask+0x1fa>
 1e8:	1a8b      	subs	r3, r1, r2
 1ea:	d500      	bpl.n	1ee <Peak_Idx_Mask+0x1ee>
 1ec:	1a53      	subs	r3, r2, r1
 1ee:	f9b5 1016 	ldrsh.w	r1, [r5, #22]
 1f2:	428b      	cmp	r3, r1
 1f4:	dd01      	ble.n	1fa <Peak_Idx_Mask+0x1fa>
 1f6:	f80a c000 	strb.w	ip, [sl, r0]
 1fa:	1c40      	adds	r0, r0, #1
 1fc:	b200      	sxth	r0, r0
 1fe:	42b8      	cmp	r0, r7
 200:	dbd2      	blt.n	1a8 <Peak_Idx_Mask+0x1a8>
 202:	f895 00f5 	ldrb.w	r0, [r5, #245]	; 0xf5
 206:	2801      	cmp	r0, #1
 208:	d149      	bne.n	29e <Peak_Idx_Mask+0x29e>
 20a:	f9b4 0b30 	ldrsh.w	r0, [r4, #2864]	; 0xb30
 20e:	2846      	cmp	r0, #70	; 0x46
 210:	dd04      	ble.n	21c <Peak_Idx_Mask+0x21c>
 212:	eb00 70d0 	add.w	r0, r0, r0, lsr #31
 216:	f3c0 004f 	ubfx	r0, r0, #1, #16
 21a:	e001      	b.n	220 <Peak_Idx_Mask+0x220>
 21c:	f8b4 0b30 	ldrh.w	r0, [r4, #2864]	; 0xb30
 220:	f9b4 1b1e 	ldrsh.w	r1, [r4, #2846]	; 0xb1e
 224:	2905      	cmp	r1, #5
 226:	db3a      	blt.n	29e <Peak_Idx_Mask+0x29e>
 228:	2200      	movs	r2, #0
 22a:	e026      	b.n	27a <Peak_Idx_Mask+0x27a>
 22c:	f939 1012 	ldrsh.w	r1, [r9, r2, lsl #1]
 230:	1a0c      	subs	r4, r1, r0
 232:	d500      	bpl.n	236 <Peak_Idx_Mask+0x236>
 234:	1a44      	subs	r4, r0, r1
 236:	f9b5 3016 	ldrsh.w	r3, [r5, #22]
 23a:	429c      	cmp	r4, r3
 23c:	db18      	blt.n	270 <Peak_Idx_Mask+0x270>
 23e:	4246      	negs	r6, r0
 240:	eb11 0446 	adds.w	r4, r1, r6, lsl #1
 244:	d501      	bpl.n	24a <Peak_Idx_Mask+0x24a>
 246:	ebc1 0440 	rsb	r4, r1, r0, lsl #1
 24a:	429c      	cmp	r4, r3
 24c:	db10      	blt.n	270 <Peak_Idx_Mask+0x270>
 24e:	eba0 0480 	sub.w	r4, r0, r0, lsl #2
 252:	190c      	adds	r4, r1, r4
 254:	d502      	bpl.n	25c <Peak_Idx_Mask+0x25c>
 256:	eb00 0440 	add.w	r4, r0, r0, lsl #1
 25a:	1a64      	subs	r4, r4, r1
 25c:	429c      	cmp	r4, r3
 25e:	db07      	blt.n	270 <Peak_Idx_Mask+0x270>
 260:	eb11 0486 	adds.w	r4, r1, r6, lsl #2
 264:	d501      	bpl.n	26a <Peak_Idx_Mask+0x26a>
 266:	ebc1 0480 	rsb	r4, r1, r0, lsl #2
 26a:	ebb4 0f43 	cmp.w	r4, r3, lsl #1
 26e:	da02      	bge.n	276 <Peak_Idx_Mask+0x276>
 270:	2101      	movs	r1, #1
 272:	f80a 1002 	strb.w	r1, [sl, r2]
 276:	1c52      	adds	r2, r2, #1
 278:	b212      	sxth	r2, r2
 27a:	42ba      	cmp	r2, r7
 27c:	dbd6      	blt.n	22c <Peak_Idx_Mask+0x22c>
 27e:	2400      	movs	r4, #0
 280:	2601      	movs	r6, #1
 282:	e00a      	b.n	29a <Peak_Idx_Mask+0x29a>
 284:	b2e1      	uxtb	r1, r4
 286:	464a      	mov	r2, r9
 288:	4628      	mov	r0, r5
 28a:	f7ff fffe 	bl	0 <check_max_motion_idx>
 28e:	2801      	cmp	r0, #1
 290:	d101      	bne.n	296 <Peak_Idx_Mask+0x296>
 292:	f80a 6004 	strb.w	r6, [sl, r4]
 296:	1c64      	adds	r4, r4, #1
 298:	b224      	sxth	r4, r4
 29a:	42bc      	cmp	r4, r7
 29c:	dbf2      	blt.n	284 <Peak_Idx_Mask+0x284>
 29e:	b007      	add	sp, #28
 2a0:	e8bd 8ff0 	ldmia.w	sp!, {r4, r5, r6, r7, r8, r9, sl, fp, pc}
 2a4:	3e99999a 	.word	0x3e99999a

Disassembly of section i.Post_Hr_Idx_process:

00000000 <Post_Hr_Idx_process>:
   0:	e92d 5ff0 	stmdb	sp!, {r4, r5, r6, r7, r8, r9, sl, fp, ip, lr}
   4:	4605      	mov	r5, r0
   6:	ed2d 8b04 	vpush	{d8-d9}
   a:	2200      	movs	r2, #0
   c:	4610      	mov	r0, r2
   e:	f04f 5a7e 	mov.w	sl, #1065353216	; 0x3f800000
  12:	eeb6 9a00 	vmov.f32	s18, #96	; 0x3f000000  0.5
  16:	eeb5 0a00 	vmov.f32	s0, #80	; 0x3e800000  0.250
  1a:	f505 5630 	add.w	r6, r5, #11264	; 0x2c00
  1e:	f505 5400 	add.w	r4, r5, #8192	; 0x2000
  22:	f9b5 70bc 	ldrsh.w	r7, [r5, #188]	; 0xbc
  26:	e03f      	b.n	a8 <Post_Hr_Idx_process+0xa8>
  28:	eb05 0180 	add.w	r1, r5, r0, lsl #2
  2c:	f501 5130 	add.w	r1, r1, #11264	; 0x2c00
  30:	f8d1 12ac 	ldr.w	r1, [r1, #684]	; 0x2ac
  34:	4551      	cmp	r1, sl
  36:	dd35      	ble.n	a4 <Post_Hr_Idx_process+0xa4>
  38:	4bcb      	ldr	r3, [pc, #812]	; (368 <Post_Hr_Idx_process+0x368>)
  3a:	f8d6 12bc 	ldr.w	r1, [r6, #700]	; 0x2bc
  3e:	4299      	cmp	r1, r3
  40:	da30      	bge.n	a4 <Post_Hr_Idx_process+0xa4>
  42:	eb00 0340 	add.w	r3, r0, r0, lsl #1
  46:	eb03 0905 	add.w	r9, r3, r5
  4a:	ebc0 03c0 	rsb	r3, r0, r0, lsl #3
  4e:	ebc3 2300 	rsb	r3, r3, r0, lsl #8
  52:	eb05 0b83 	add.w	fp, r5, r3, lsl #2
  56:	f641 13fe 	movw	r3, #6654	; 0x19fe
  5a:	2100      	movs	r1, #0
  5c:	f933 300b 	ldrsh.w	r3, [r3, fp]
  60:	e01d      	b.n	9e <Post_Hr_Idx_process+0x9e>
  62:	bf00      	nop
  64:	eb09 0c01 	add.w	ip, r9, r1
  68:	f50c 5c00 	add.w	ip, ip, #8192	; 0x2000
  6c:	f89c cab8 	ldrb.w	ip, [ip, #2744]	; 0xab8
  70:	f1bc 0f00 	cmp.w	ip, #0
  74:	d111      	bne.n	9a <Post_Hr_Idx_process+0x9a>
  76:	eb0b 0c41 	add.w	ip, fp, r1, lsl #1
  7a:	f641 18f8 	movw	r8, #6648	; 0x19f8
  7e:	f93c 8008 	ldrsh.w	r8, [ip, r8]
  82:	f9b4 cb12 	ldrsh.w	ip, [r4, #2834]	; 0xb12
  86:	ebac 0c08 	sub.w	ip, ip, r8
  8a:	f10c 0c03 	add.w	ip, ip, #3
  8e:	f1bc 0f06 	cmp.w	ip, #6
  92:	d802      	bhi.n	9a <Post_Hr_Idx_process+0x9a>
  94:	eeb0 8a40 	vmov.f32	s16, s0
  98:	e01f      	b.n	da <Post_Hr_Idx_process+0xda>
  9a:	1c49      	adds	r1, r1, #1
  9c:	b209      	sxth	r1, r1
  9e:	428b      	cmp	r3, r1
  a0:	dce0      	bgt.n	64 <Post_Hr_Idx_process+0x64>
  a2:	b9d2      	cbnz	r2, da <Post_Hr_Idx_process+0xda>
  a4:	1c40      	adds	r0, r0, #1
  a6:	b200      	sxth	r0, r0
  a8:	4287      	cmp	r7, r0
  aa:	dcbd      	bgt.n	28 <Post_Hr_Idx_process+0x28>
  ac:	b9aa      	cbnz	r2, da <Post_Hr_Idx_process+0xda>
  ae:	f9b4 2b12 	ldrsh.w	r2, [r4, #2834]	; 0xb12
  b2:	f9b4 1b14 	ldrsh.w	r1, [r4, #2836]	; 0xb14
  b6:	1a50      	subs	r0, r2, r1
  b8:	d500      	bpl.n	bc <Post_Hr_Idx_process+0xbc>
  ba:	1a88      	subs	r0, r1, r2
  bc:	b200      	sxth	r0, r0
  be:	280d      	cmp	r0, #13
  c0:	dd02      	ble.n	c8 <Post_Hr_Idx_process+0xc8>
  c2:	eeb6 8a0c 	vmov.f32	s16, #108	; 0x3f600000  0.875
  c6:	e008      	b.n	da <Post_Hr_Idx_process+0xda>
  c8:	2807      	cmp	r0, #7
  ca:	dd02      	ble.n	d2 <Post_Hr_Idx_process+0xd2>
  cc:	eeb6 8a08 	vmov.f32	s16, #104	; 0x3f400000  0.750
  d0:	e003      	b.n	da <Post_Hr_Idx_process+0xda>
  d2:	2803      	cmp	r0, #3
  d4:	ddde      	ble.n	94 <Post_Hr_Idx_process+0x94>
  d6:	eeb0 8a49 	vmov.f32	s16, s18
  da:	f895 0106 	ldrb.w	r0, [r5, #262]	; 0x106
  de:	eddf 8aa3 	vldr	s17, [pc, #652]	; 36c <Post_Hr_Idx_process+0x36c>
  e2:	bb38      	cbnz	r0, 134 <Post_Hr_Idx_process+0x134>
  e4:	f9b4 0b1e 	ldrsh.w	r0, [r4, #2846]	; 0xb1e
  e8:	280f      	cmp	r0, #15
  ea:	da24      	bge.n	136 <Post_Hr_Idx_process+0x136>
  ec:	f894 0f0f 	ldrb.w	r0, [r4, #3855]	; 0xf0f
  f0:	2801      	cmp	r0, #1
  f2:	d005      	beq.n	100 <Post_Hr_Idx_process+0x100>
  f4:	2802      	cmp	r0, #2
  f6:	d34a      	bcc.n	18e <Post_Hr_Idx_process+0x18e>
  f8:	f894 0ee8 	ldrb.w	r0, [r4, #3816]	; 0xee8
  fc:	b180      	cbz	r0, 120 <Post_Hr_Idx_process+0x120>
  fe:	e046      	b.n	18e <Post_Hr_Idx_process+0x18e>
 100:	8868      	ldrh	r0, [r5, #2]
 102:	2801      	cmp	r0, #1
 104:	d009      	beq.n	11a <Post_Hr_Idx_process+0x11a>
 106:	ed9f 8a9a 	vldr	s16, [pc, #616]	; 370 <Post_Hr_Idx_process+0x370>
 10a:	bf00      	nop
 10c:	f9b4 0b14 	ldrsh.w	r0, [r4, #2836]	; 0xb14
 110:	2800      	cmp	r0, #0
 112:	dd3c      	ble.n	18e <Post_Hr_Idx_process+0x18e>
 114:	2205      	movs	r2, #5
 116:	4611      	mov	r1, r2
 118:	e02f      	b.n	17a <Post_Hr_Idx_process+0x17a>
 11a:	eeb0 8a68 	vmov.f32	s16, s17
 11e:	e7f5      	b.n	10c <Post_Hr_Idx_process+0x10c>
 120:	8868      	ldrh	r0, [r5, #2]
 122:	2801      	cmp	r0, #1
 124:	d004      	beq.n	130 <Post_Hr_Idx_process+0x130>
 126:	2205      	movs	r2, #5
 128:	eeb0 8a40 	vmov.f32	s16, s0
 12c:	210a      	movs	r1, #10
 12e:	e024      	b.n	17a <Post_Hr_Idx_process+0x17a>
 130:	eeb0 8a68 	vmov.f32	s16, s17
 134:	e03a      	b.n	1ac <Post_Hr_Idx_process+0x1ac>
 136:	f894 0b28 	ldrb.w	r0, [r4, #2856]	; 0xb28
 13a:	2801      	cmp	r0, #1
 13c:	d127      	bne.n	18e <Post_Hr_Idx_process+0x18e>
 13e:	f894 0f0f 	ldrb.w	r0, [r4, #3855]	; 0xf0f
 142:	b320      	cbz	r0, 18e <Post_Hr_Idx_process+0x18e>
 144:	f9b4 0b14 	ldrsh.w	r0, [r4, #2836]	; 0xb14
 148:	eeb0 8a68 	vmov.f32	s16, s17
 14c:	2800      	cmp	r0, #0
 14e:	dd1e      	ble.n	18e <Post_Hr_Idx_process+0x18e>
 150:	8869      	ldrh	r1, [r5, #2]
 152:	2901      	cmp	r1, #1
 154:	d00f      	beq.n	176 <Post_Hr_Idx_process+0x176>
 156:	f9b4 1b12 	ldrsh.w	r1, [r4, #2834]	; 0xb12
 15a:	1a09      	subs	r1, r1, r0
 15c:	2905      	cmp	r1, #5
 15e:	dd02      	ble.n	166 <Post_Hr_Idx_process+0x166>
 160:	1d41      	adds	r1, r0, #5
 162:	f8a4 1b12 	strh.w	r1, [r4, #2834]	; 0xb12
 166:	f9b4 1b12 	ldrsh.w	r1, [r4, #2834]	; 0xb12
 16a:	1a0a      	subs	r2, r1, r0
 16c:	f112 0f05 	cmn.w	r2, #5
 170:	da07      	bge.n	182 <Post_Hr_Idx_process+0x182>
 172:	1f40      	subs	r0, r0, #5
 174:	e009      	b.n	18a <Post_Hr_Idx_process+0x18a>
 176:	2203      	movs	r2, #3
 178:	4611      	mov	r1, r2
 17a:	4628      	mov	r0, r5
 17c:	f7ff fffe 	bl	0 <Post_Hr_Idx_process>
 180:	e005      	b.n	18e <Post_Hr_Idx_process+0x18e>
 182:	4408      	add	r0, r1
 184:	eb00 70d0 	add.w	r0, r0, r0, lsr #31
 188:	1040      	asrs	r0, r0, #1
 18a:	f8a4 0b12 	strh.w	r0, [r4, #2834]	; 0xb12
 18e:	f894 0ee8 	ldrb.w	r0, [r4, #3816]	; 0xee8
 192:	2801      	cmp	r0, #1
 194:	d10a      	bne.n	1ac <Post_Hr_Idx_process+0x1ac>
 196:	f9b4 0b14 	ldrsh.w	r0, [r4, #2836]	; 0xb14
 19a:	eeb0 8a68 	vmov.f32	s16, s17
 19e:	2800      	cmp	r0, #0
 1a0:	dd04      	ble.n	1ac <Post_Hr_Idx_process+0x1ac>
 1a2:	2205      	movs	r2, #5
 1a4:	4611      	mov	r1, r2
 1a6:	4628      	mov	r0, r5
 1a8:	f7ff fffe 	bl	0 <Post_Hr_Idx_process>
 1ac:	f894 0f19 	ldrb.w	r0, [r4, #3865]	; 0xf19
 1b0:	2802      	cmp	r0, #2
 1b2:	d302      	bcc.n	1ba <Post_Hr_Idx_process+0x1ba>
 1b4:	eddf 9a6f 	vldr	s19, [pc, #444]	; 374 <Post_Hr_Idx_process+0x374>
 1b8:	e001      	b.n	1be <Post_Hr_Idx_process+0x1be>
 1ba:	eef7 9a08 	vmov.f32	s19, #120	; 0x3fc00000  1.5
 1be:	f8d6 0300 	ldr.w	r0, [r6, #768]	; 0x300
 1c2:	4550      	cmp	r0, sl
 1c4:	da0b      	bge.n	1de <Post_Hr_Idx_process+0x1de>
 1c6:	f9b4 0b12 	ldrsh.w	r0, [r4, #2834]	; 0xb12
 1ca:	ee00 0a10 	vmov	s0, r0
 1ce:	eeb8 0ac0 	vcvt.f32.s32	s0, s0
 1d2:	ed86 0ac0 	vstr	s0, [r6, #768]	; 0x300
 1d6:	ecbd 8b04 	vpop	{d8-d9}
 1da:	e8bd 9ff0 	ldmia.w	sp!, {r4, r5, r6, r7, r8, r9, sl, fp, ip, pc}
 1de:	f895 00d2 	ldrb.w	r0, [r5, #210]	; 0xd2
 1e2:	2801      	cmp	r0, #1
 1e4:	d158      	bne.n	298 <Post_Hr_Idx_process+0x298>
 1e6:	f9b4 1b30 	ldrsh.w	r1, [r4, #2864]	; 0xb30
 1ea:	f9b4 0b12 	ldrsh.w	r0, [r4, #2834]	; 0xb12
 1ee:	f7ff fffe 	bl	0 <Is_Motion_Peak>
 1f2:	bbe8      	cbnz	r0, 270 <Post_Hr_Idx_process+0x270>
 1f4:	f9b4 0b30 	ldrsh.w	r0, [r4, #2864]	; 0xb30
 1f8:	f9b4 1b12 	ldrsh.w	r1, [r4, #2834]	; 0xb12
 1fc:	eba0 0280 	sub.w	r2, r0, r0, lsl #2
 200:	1d52      	adds	r2, r2, #5
 202:	440a      	add	r2, r1
 204:	2a0a      	cmp	r2, #10
 206:	d93e      	bls.n	286 <Post_Hr_Idx_process+0x286>
 208:	eb00 0040 	add.w	r0, r0, r0, lsl #1
 20c:	eb00 72d0 	add.w	r2, r0, r0, lsr #31
 210:	eba1 0062 	sub.w	r0, r1, r2, asr #1
 214:	2800      	cmp	r0, #0
 216:	d501      	bpl.n	21c <Post_Hr_Idx_process+0x21c>
 218:	ebc1 0062 	rsb	r0, r1, r2, asr #1
 21c:	2805      	cmp	r0, #5
 21e:	dd32      	ble.n	286 <Post_Hr_Idx_process+0x286>
 220:	2000      	movs	r0, #0
 222:	f9b5 30bc 	ldrsh.w	r3, [r5, #188]	; 0xbc
 226:	e02b      	b.n	280 <Post_Hr_Idx_process+0x280>
 228:	ebc0 02c0 	rsb	r2, r0, r0, lsl #3
 22c:	ebc2 2200 	rsb	r2, r2, r0, lsl #8
 230:	eb05 0282 	add.w	r2, r5, r2, lsl #2
 234:	f502 5280 	add.w	r2, r2, #4096	; 0x1000
 238:	f8d2 7dc0 	ldr.w	r7, [r2, #3520]	; 0xdc0
 23c:	f9b2 29fa 	ldrsh.w	r2, [r2, #2554]	; 0x9fa
 240:	f857 c021 	ldr.w	ip, [r7, r1, lsl #2]
 244:	f857 2022 	ldr.w	r2, [r7, r2, lsl #2]
 248:	ee00 ca10 	vmov	s0, ip
 24c:	eef8 0ac0 	vcvt.f32.s32	s1, s0
 250:	ee00 2a10 	vmov	s0, r2
 254:	eeb8 0ac0 	vcvt.f32.s32	s0, s0
 258:	ee20 0a29 	vmul.f32	s0, s0, s19
 25c:	eef4 0ac0 	vcmpe.f32	s1, s0
 260:	eef1 fa10 	vmrs	APSR_nzcv, fpscr
 264:	dd0a      	ble.n	27c <Post_Hr_Idx_process+0x27c>
 266:	eeb0 8a68 	vmov.f32	s16, s17
 26a:	f894 0f19 	ldrb.w	r0, [r4, #3865]	; 0xf19
 26e:	e000      	b.n	272 <Post_Hr_Idx_process+0x272>
 270:	e009      	b.n	286 <Post_Hr_Idx_process+0x286>
 272:	2802      	cmp	r0, #2
 274:	d310      	bcc.n	298 <Post_Hr_Idx_process+0x298>
 276:	ed9f 8a40 	vldr	s16, [pc, #256]	; 378 <Post_Hr_Idx_process+0x378>
 27a:	e00d      	b.n	298 <Post_Hr_Idx_process+0x298>
 27c:	1c40      	adds	r0, r0, #1
 27e:	b200      	sxth	r0, r0
 280:	4283      	cmp	r3, r0
 282:	dcd1      	bgt.n	228 <Post_Hr_Idx_process+0x228>
 284:	e008      	b.n	298 <Post_Hr_Idx_process+0x298>
 286:	f894 0f0e 	ldrb.w	r0, [r4, #3854]	; 0xf0e
 28a:	2801      	cmp	r0, #1
 28c:	d104      	bne.n	298 <Post_Hr_Idx_process+0x298>
 28e:	f8d4 0884 	ldr.w	r0, [r4, #2180]	; 0x884
 292:	b908      	cbnz	r0, 298 <Post_Hr_Idx_process+0x298>
 294:	eeb0 8a68 	vmov.f32	s16, s17
 298:	4938      	ldr	r1, [pc, #224]	; (37c <Post_Hr_Idx_process+0x37c>)
 29a:	f8d6 02ac 	ldr.w	r0, [r6, #684]	; 0x2ac
 29e:	4288      	cmp	r0, r1
 2a0:	da03      	bge.n	2aa <Post_Hr_Idx_process+0x2aa>
 2a2:	f894 0951 	ldrb.w	r0, [r4, #2385]	; 0x951
 2a6:	2801      	cmp	r0, #1
 2a8:	d01c      	beq.n	2e4 <Post_Hr_Idx_process+0x2e4>
 2aa:	f9b4 0b30 	ldrsh.w	r0, [r4, #2864]	; 0xb30
 2ae:	f9b4 1b12 	ldrsh.w	r1, [r4, #2834]	; 0xb12
 2b2:	1a40      	subs	r0, r0, r1
 2b4:	3009      	adds	r0, #9
 2b6:	2812      	cmp	r0, #18
 2b8:	d831      	bhi.n	31e <Post_Hr_Idx_process+0x31e>
 2ba:	4931      	ldr	r1, [pc, #196]	; (380 <Post_Hr_Idx_process+0x380>)
 2bc:	f8d6 02bc 	ldr.w	r0, [r6, #700]	; 0x2bc
 2c0:	4288      	cmp	r0, r1
 2c2:	dd2c      	ble.n	31e <Post_Hr_Idx_process+0x31e>
 2c4:	f9b4 0b12 	ldrsh.w	r0, [r4, #2834]	; 0xb12
 2c8:	f9b4 2b30 	ldrsh.w	r2, [r4, #2864]	; 0xb30
 2cc:	1f41      	subs	r1, r0, #5
 2ce:	428a      	cmp	r2, r1
 2d0:	da25      	bge.n	31e <Post_Hr_Idx_process+0x31e>
 2d2:	f9b4 1b14 	ldrsh.w	r1, [r4, #2836]	; 0xb14
 2d6:	4288      	cmp	r0, r1
 2d8:	da21      	bge.n	31e <Post_Hr_Idx_process+0x31e>
 2da:	f894 0ab8 	ldrb.w	r0, [r4, #2744]	; 0xab8
 2de:	2801      	cmp	r0, #1
 2e0:	d016      	beq.n	310 <Post_Hr_Idx_process+0x310>
 2e2:	e01c      	b.n	31e <Post_Hr_Idx_process+0x31e>
 2e4:	f9b4 1b30 	ldrsh.w	r1, [r4, #2864]	; 0xb30
 2e8:	f9b4 0b12 	ldrsh.w	r0, [r4, #2834]	; 0xb12
 2ec:	1a09      	subs	r1, r1, r0
 2ee:	3109      	adds	r1, #9
 2f0:	2912      	cmp	r1, #18
 2f2:	d814      	bhi.n	31e <Post_Hr_Idx_process+0x31e>
 2f4:	f9b4 1b14 	ldrsh.w	r1, [r4, #2836]	; 0xb14
 2f8:	1a40      	subs	r0, r0, r1
 2fa:	1d40      	adds	r0, r0, #5
 2fc:	280a      	cmp	r0, #10
 2fe:	d9dc      	bls.n	2ba <Post_Hr_Idx_process+0x2ba>
 300:	ee18 0a10 	vmov	r0, s16
 304:	f1b0 5f7c 	cmp.w	r0, #1056964608	; 0x3f000000
 308:	dad7      	bge.n	2ba <Post_Hr_Idx_process+0x2ba>
 30a:	eeb0 8a49 	vmov.f32	s16, s18
 30e:	e7d4      	b.n	2ba <Post_Hr_Idx_process+0x2ba>
 310:	ee18 0a10 	vmov	r0, s16
 314:	491b      	ldr	r1, [pc, #108]	; (384 <Post_Hr_Idx_process+0x384>)
 316:	4288      	cmp	r0, r1
 318:	da01      	bge.n	31e <Post_Hr_Idx_process+0x31e>
 31a:	ed9f 8a1b 	vldr	s16, [pc, #108]	; 388 <Post_Hr_Idx_process+0x388>
 31e:	f9b4 0f16 	ldrsh.w	r0, [r4, #3862]	; 0xf16
 322:	f5b0 7f96 	cmp.w	r0, #300	; 0x12c
 326:	dd05      	ble.n	334 <Post_Hr_Idx_process+0x334>
 328:	f8d4 0884 	ldr.w	r0, [r4, #2180]	; 0x884
 32c:	2800      	cmp	r0, #0
 32e:	dd01      	ble.n	334 <Post_Hr_Idx_process+0x334>
 330:	ed9f 8a16 	vldr	s16, [pc, #88]	; 38c <Post_Hr_Idx_process+0x38c>
 334:	eeb7 0a00 	vmov.f32	s0, #112	; 0x3f800000  1.0
 338:	f9b4 0b12 	ldrsh.w	r0, [r4, #2834]	; 0xb12
 33c:	ee70 0a48 	vsub.f32	s1, s0, s16
 340:	ee00 0a10 	vmov	s0, r0
 344:	eeb8 0ac0 	vcvt.f32.s32	s0, s0
 348:	ee20 0a80 	vmul.f32	s0, s1, s0
 34c:	edd6 0ac0 	vldr	s1, [r6, #768]	; 0x300
 350:	ee08 0a20 	vmla.f32	s0, s16, s1
 354:	ed86 0ac0 	vstr	s0, [r6, #768]	; 0x300
 358:	eebd 0ac0 	vcvt.s32.f32	s0, s0
 35c:	ee10 0a10 	vmov	r0, s0
 360:	f8a4 0b12 	strh.w	r0, [r4, #2834]	; 0xb12
 364:	e737      	b.n	1d6 <Post_Hr_Idx_process+0x1d6>
 366:	0000      	.short	0x0000
 368:	3f333333 	.word	0x3f333333
 36c:	00000000 	.word	0x00000000
 370:	3dcccccd 	.word	0x3dcccccd
 374:	3fa66666 	.word	0x3fa66666
 378:	3e99999a 	.word	0x3e99999a
 37c:	3f666666 	.word	0x3f666666
 380:	3fe66666 	.word	0x3fe66666
 384:	3f4ccccd 	.word	0x3f4ccccd
 388:	3f4ccccd 	.word	0x3f4ccccd
 38c:	3f666666 	.word	0x3f666666

Disassembly of section i.SD_Hr_Jump_Rule:

00000000 <SD_Hr_Jump_Rule>:
   0:	b510      	push	{r4, lr}
   2:	f641 51d0 	movw	r1, #7632	; 0x1dd0
   6:	f8b0 40bc 	ldrh.w	r4, [r0, #188]	; 0xbc
   a:	2200      	movs	r2, #0
   c:	5c0b      	ldrb	r3, [r1, r0]
   e:	f500 5100 	add.w	r1, r0, #8192	; 0x2000
  12:	2c02      	cmp	r4, #2
  14:	d104      	bne.n	20 <SD_Hr_Jump_Rule+0x20>
  16:	2b01      	cmp	r3, #1
  18:	d100      	bne.n	1c <SD_Hr_Jump_Rule+0x1c>
  1a:	2201      	movs	r2, #1
  1c:	f891 31b4 	ldrb.w	r3, [r1, #436]	; 0x1b4
  20:	2b01      	cmp	r3, #1
  22:	d100      	bne.n	26 <SD_Hr_Jump_Rule+0x26>
  24:	2201      	movs	r2, #1
  26:	f891 3b11 	ldrb.w	r3, [r1, #2833]	; 0xb11
  2a:	2b01      	cmp	r3, #1
  2c:	d12a      	bne.n	84 <SD_Hr_Jump_Rule+0x84>
  2e:	f890 30d5 	ldrb.w	r3, [r0, #213]	; 0xd5
  32:	2b01      	cmp	r3, #1
  34:	d126      	bne.n	84 <SD_Hr_Jump_Rule+0x84>
  36:	f9b1 3b14 	ldrsh.w	r3, [r1, #2836]	; 0xb14
  3a:	2b00      	cmp	r3, #0
  3c:	dd22      	ble.n	84 <SD_Hr_Jump_Rule+0x84>
  3e:	2a00      	cmp	r2, #0
  40:	d020      	beq.n	84 <SD_Hr_Jump_Rule+0x84>
  42:	2200      	movs	r2, #0
  44:	eb00 0442 	add.w	r4, r0, r2, lsl #1
  48:	f9b4 40d6 	ldrsh.w	r4, [r4, #214]	; 0xd6
  4c:	42a3      	cmp	r3, r4
  4e:	db03      	blt.n	58 <SD_Hr_Jump_Rule+0x58>
  50:	1c52      	adds	r2, r2, #1
  52:	b212      	sxth	r2, r2
  54:	2a03      	cmp	r2, #3
  56:	dbf5      	blt.n	44 <SD_Hr_Jump_Rule+0x44>
  58:	f9b1 4b12 	ldrsh.w	r4, [r1, #2834]	; 0xb12
  5c:	eb00 0042 	add.w	r0, r0, r2, lsl #1
  60:	429c      	cmp	r4, r3
  62:	eba4 0403 	sub.w	r4, r4, r3
  66:	dd05      	ble.n	74 <SD_Hr_Jump_Rule+0x74>
  68:	f9b0 00dc 	ldrsh.w	r0, [r0, #220]	; 0xdc
  6c:	4284      	cmp	r4, r0
  6e:	dd09      	ble.n	84 <SD_Hr_Jump_Rule+0x84>
  70:	4418      	add	r0, r3
  72:	e005      	b.n	80 <SD_Hr_Jump_Rule+0x80>
  74:	f9b0 00e4 	ldrsh.w	r0, [r0, #228]	; 0xe4
  78:	4242      	negs	r2, r0
  7a:	4294      	cmp	r4, r2
  7c:	da02      	bge.n	84 <SD_Hr_Jump_Rule+0x84>
  7e:	1a18      	subs	r0, r3, r0
  80:	f8a1 0b12 	strh.w	r0, [r1, #2834]	; 0xb12
  84:	bd10      	pop	{r4, pc}

Disassembly of section i.Time_Domain_Confirm_HR:

00000000 <Time_Domain_Confirm_HR>:
   0:	e92d 4ff0 	stmdb	sp!, {r4, r5, r6, r7, r8, r9, sl, fp, lr}
   4:	f04f 0900 	mov.w	r9, #0
   8:	ed2d 8b02 	vpush	{d8}
   c:	b08d      	sub	sp, #52	; 0x34
   e:	4604      	mov	r4, r0
  10:	46ca      	mov	sl, r9
  12:	464f      	mov	r7, r9
  14:	f500 5880 	add.w	r8, r0, #4096	; 0x1000
  18:	eeb8 8a08 	vmov.f32	s16, #136	; 0xc0400000 -3.0
  1c:	f500 5500 	add.w	r5, r0, #8192	; 0x2000
  20:	e0b6      	b.n	190 <Time_Domain_Confirm_HR+0x190>
  22:	bf00      	nop
  24:	eb04 0087 	add.w	r0, r4, r7, lsl #2
  28:	f642 61ac 	movw	r1, #11948	; 0x2eac
  2c:	4a96      	ldr	r2, [pc, #600]	; (288 <Time_Domain_Confirm_HR+0x288>)
  2e:	5809      	ldr	r1, [r1, r0]
  30:	4291      	cmp	r1, r2
  32:	dd70      	ble.n	116 <Time_Domain_Confirm_HR+0x116>
  34:	ebc7 01c7 	rsb	r1, r7, r7, lsl #3
  38:	ebc1 2107 	rsb	r1, r1, r7, lsl #8
  3c:	eb04 0181 	add.w	r1, r4, r1, lsl #2
  40:	9101      	str	r1, [sp, #4]
  42:	f501 5180 	add.w	r1, r1, #4096	; 0x1000
  46:	f9b1 19f8 	ldrsh.w	r1, [r1, #2552]	; 0x9f8
  4a:	2946      	cmp	r1, #70	; 0x46
  4c:	dd63      	ble.n	116 <Time_Domain_Confirm_HR+0x116>
  4e:	2982      	cmp	r1, #130	; 0x82
  50:	da61      	bge.n	116 <Time_Domain_Confirm_HR+0x116>
  52:	f9b5 2f68 	ldrsh.w	r2, [r5, #3944]	; 0xf68
  56:	2a05      	cmp	r2, #5
  58:	dc0b      	bgt.n	72 <Time_Domain_Confirm_HR+0x72>
  5a:	f9b5 2f66 	ldrsh.w	r2, [r5, #3942]	; 0xf66
  5e:	2a03      	cmp	r2, #3
  60:	da59      	bge.n	116 <Time_Domain_Confirm_HR+0x116>
  62:	f9b5 2b12 	ldrsh.w	r2, [r5, #2834]	; 0xb12
  66:	f9b5 3b14 	ldrsh.w	r3, [r5, #2836]	; 0xb14
  6a:	1ad2      	subs	r2, r2, r3
  6c:	1d92      	adds	r2, r2, #6
  6e:	2a0c      	cmp	r2, #12
  70:	d951      	bls.n	116 <Time_Domain_Confirm_HR+0x116>
  72:	ee00 1a10 	vmov	s0, r1
  76:	f504 51e0 	add.w	r1, r4, #7168	; 0x1c00
  7a:	eeb8 0ac0 	vcvt.f32.s32	s0, s0
  7e:	edd1 0a71 	vldr	s1, [r1, #452]	; 0x1c4
  82:	f504 5120 	add.w	r1, r4, #10240	; 0x2800
  86:	ee60 0a20 	vmul.f32	s1, s0, s1
  8a:	ed91 1ada 	vldr	s2, [r1, #872]	; 0x368
  8e:	ee80 0a81 	vdiv.f32	s0, s1, s2
  92:	ed9f 1a7e 	vldr	s2, [pc, #504]	; 28c <Time_Domain_Confirm_HR+0x28c>
  96:	f500 5000 	add.w	r0, r0, #8192	; 0x2000
  9a:	eec1 0a00 	vdiv.f32	s1, s2, s0
  9e:	eeb6 0a00 	vmov.f32	s0, #96	; 0x3f000000  0.5
  a2:	ee30 0a80 	vadd.f32	s0, s1, s0
  a6:	eebd 0ac0 	vcvt.s32.f32	s0, s0
  aa:	ee10 1a10 	vmov	r1, s0
  ae:	b209      	sxth	r1, r1
  b0:	9105      	str	r1, [sp, #20]
  b2:	f8b8 19f2 	ldrh.w	r1, [r8, #2546]	; 0x9f2
  b6:	1e89      	subs	r1, r1, #2
  b8:	b20e      	sxth	r6, r1
  ba:	9901      	ldr	r1, [sp, #4]
  bc:	900b      	str	r0, [sp, #44]	; 0x2c
  be:	f501 5bd0 	add.w	fp, r1, #6656	; 0x1a00
  c2:	e02b      	b.n	11c <Time_Domain_Confirm_HR+0x11c>
  c4:	4658      	mov	r0, fp
  c6:	4631      	mov	r1, r6
  c8:	f7ff fffe 	bl	0 <Is_n_Peak>
  cc:	2801      	cmp	r0, #1
  ce:	d123      	bne.n	118 <Time_Domain_Confirm_HR+0x118>
  d0:	9801      	ldr	r0, [sp, #4]
  d2:	eb00 0086 	add.w	r0, r0, r6, lsl #2
  d6:	f500 5080 	add.w	r0, r0, #4096	; 0x1000
  da:	f8d0 0a00 	ldr.w	r0, [r0, #2560]	; 0xa00
  de:	ee00 0a10 	vmov	s0, r0
  e2:	980b      	ldr	r0, [sp, #44]	; 0x2c
  e4:	eef8 0ac0 	vcvt.f32.s32	s1, s0
  e8:	f8d0 0948 	ldr.w	r0, [r0, #2376]	; 0x948
  ec:	ee00 0a10 	vmov	s0, r0
  f0:	eeb8 0ac0 	vcvt.f32.s32	s0, s0
  f4:	ee20 0a08 	vmul.f32	s0, s0, s16
  f8:	eef4 0ac0 	vcmpe.f32	s1, s0
  fc:	eef1 fa10 	vmrs	APSR_nzcv, fpscr
 100:	d20a      	bcs.n	118 <Time_Domain_Confirm_HR+0x118>
 102:	9604      	str	r6, [sp, #16]
 104:	2e00      	cmp	r6, #0
 106:	dd41      	ble.n	18c <Time_Domain_Confirm_HR+0x18c>
 108:	9905      	ldr	r1, [sp, #20]
 10a:	1a70      	subs	r0, r6, r1
 10c:	1c81      	adds	r1, r0, #2
 10e:	1e80      	subs	r0, r0, #2
 110:	b20e      	sxth	r6, r1
 112:	9002      	str	r0, [sp, #8]
 114:	e038      	b.n	188 <Time_Domain_Confirm_HR+0x188>
 116:	e039      	b.n	18c <Time_Domain_Confirm_HR+0x18c>
 118:	1e76      	subs	r6, r6, #1
 11a:	b236      	sxth	r6, r6
 11c:	f9b8 19f2 	ldrsh.w	r1, [r8, #2546]	; 0x9f2
 120:	9805      	ldr	r0, [sp, #20]
 122:	1a08      	subs	r0, r1, r0
 124:	1ec0      	subs	r0, r0, #3
 126:	42b0      	cmp	r0, r6
 128:	dbcc      	blt.n	c4 <Time_Domain_Confirm_HR+0xc4>
 12a:	e02f      	b.n	18c <Time_Domain_Confirm_HR+0x18c>
 12c:	4658      	mov	r0, fp
 12e:	4631      	mov	r1, r6
 130:	f7ff fffe 	bl	0 <Is_n_Peak>
 134:	2801      	cmp	r0, #1
 136:	d124      	bne.n	182 <Time_Domain_Confirm_HR+0x182>
 138:	9801      	ldr	r0, [sp, #4]
 13a:	eb00 0086 	add.w	r0, r0, r6, lsl #2
 13e:	f500 5080 	add.w	r0, r0, #4096	; 0x1000
 142:	f8d0 0a00 	ldr.w	r0, [r0, #2560]	; 0xa00
 146:	ee00 0a10 	vmov	s0, r0
 14a:	980b      	ldr	r0, [sp, #44]	; 0x2c
 14c:	eef8 0ac0 	vcvt.f32.s32	s1, s0
 150:	f8d0 0948 	ldr.w	r0, [r0, #2376]	; 0x948
 154:	ee00 0a10 	vmov	s0, r0
 158:	eeb8 0ac0 	vcvt.f32.s32	s0, s0
 15c:	ee20 0a08 	vmul.f32	s0, s0, s16
 160:	eef4 0ac0 	vcmpe.f32	s1, s0
 164:	eef1 fa10 	vmrs	APSR_nzcv, fpscr
 168:	d20b      	bcs.n	182 <Time_Domain_Confirm_HR+0x182>
 16a:	2e00      	cmp	r6, #0
 16c:	dd0e      	ble.n	18c <Time_Domain_Confirm_HR+0x18c>
 16e:	9804      	ldr	r0, [sp, #16]
 170:	1b81      	subs	r1, r0, r6
 172:	9805      	ldr	r0, [sp, #20]
 174:	1a08      	subs	r0, r1, r0
 176:	1c40      	adds	r0, r0, #1
 178:	2802      	cmp	r0, #2
 17a:	d807      	bhi.n	18c <Time_Domain_Confirm_HR+0x18c>
 17c:	f04f 0901 	mov.w	r9, #1
 180:	e00b      	b.n	19a <Time_Domain_Confirm_HR+0x19a>
 182:	1e76      	subs	r6, r6, #1
 184:	9802      	ldr	r0, [sp, #8]
 186:	b236      	sxth	r6, r6
 188:	42b0      	cmp	r0, r6
 18a:	dbcf      	blt.n	12c <Time_Domain_Confirm_HR+0x12c>
 18c:	1c7f      	adds	r7, r7, #1
 18e:	b23f      	sxth	r7, r7
 190:	f9b4 00bc 	ldrsh.w	r0, [r4, #188]	; 0xbc
 194:	42b8      	cmp	r0, r7
 196:	f73f af45 	bgt.w	24 <Time_Domain_Confirm_HR+0x24>
 19a:	f894 00d2 	ldrb.w	r0, [r4, #210]	; 0xd2
 19e:	b190      	cbz	r0, 1c6 <Time_Domain_Confirm_HR+0x1c6>
 1a0:	f1b9 0f00 	cmp.w	r9, #0
 1a4:	d012      	beq.n	1cc <Time_Domain_Confirm_HR+0x1cc>
 1a6:	f895 0b29 	ldrb.w	r0, [r5, #2857]	; 0xb29
 1aa:	2801      	cmp	r0, #1
 1ac:	d005      	beq.n	1ba <Time_Domain_Confirm_HR+0x1ba>
 1ae:	2800      	cmp	r0, #0
 1b0:	d10c      	bne.n	1cc <Time_Domain_Confirm_HR+0x1cc>
 1b2:	f895 0b28 	ldrb.w	r0, [r5, #2856]	; 0xb28
 1b6:	2800      	cmp	r0, #0
 1b8:	d108      	bne.n	1cc <Time_Domain_Confirm_HR+0x1cc>
 1ba:	2100      	movs	r1, #0
 1bc:	f04f 0b03 	mov.w	fp, #3
 1c0:	f9b4 90bc 	ldrsh.w	r9, [r4, #188]	; 0xbc
 1c4:	e03d      	b.n	242 <Time_Domain_Confirm_HR+0x242>
 1c6:	f1b9 0f00 	cmp.w	r9, #0
 1ca:	d1f6      	bne.n	1ba <Time_Domain_Confirm_HR+0x1ba>
 1cc:	b00d      	add	sp, #52	; 0x34
 1ce:	ecbd 8b02 	vpop	{d8}
 1d2:	e8bd 8ff0 	ldmia.w	sp!, {r4, r5, r6, r7, r8, r9, sl, fp, pc}
 1d6:	ebc1 02c1 	rsb	r2, r1, r1, lsl #3
 1da:	ebc2 2201 	rsb	r2, r2, r1, lsl #8
 1de:	eb04 0382 	add.w	r3, r4, r2, lsl #2
 1e2:	f641 12fe 	movw	r2, #6654	; 0x19fe
 1e6:	2000      	movs	r0, #0
 1e8:	f932 c003 	ldrsh.w	ip, [r2, r3]
 1ec:	e022      	b.n	234 <Time_Domain_Confirm_HR+0x234>
 1ee:	bf00      	nop
 1f0:	eb03 0240 	add.w	r2, r3, r0, lsl #1
 1f4:	f502 5280 	add.w	r2, r2, #4096	; 0x1000
 1f8:	f9b2 29f8 	ldrsh.w	r2, [r2, #2552]	; 0x9f8
 1fc:	0056      	lsls	r6, r2, #1
 1fe:	fb96 f8fb 	sdiv	r8, r6, fp
 202:	ebc7 02c7 	rsb	r2, r7, r7, lsl #3
 206:	ebc2 2207 	rsb	r2, r2, r7, lsl #8
 20a:	eb04 0282 	add.w	r2, r4, r2, lsl #2
 20e:	fb96 f6fb 	sdiv	r6, r6, fp
 212:	f502 5280 	add.w	r2, r2, #4096	; 0x1000
 216:	f9b2 29f8 	ldrsh.w	r2, [r2, #2552]	; 0x9f8
 21a:	ebb8 0802 	subs.w	r8, r8, r2
 21e:	d501      	bpl.n	224 <Time_Domain_Confirm_HR+0x224>
 220:	1b92      	subs	r2, r2, r6
 222:	e000      	b.n	226 <Time_Domain_Confirm_HR+0x226>
 224:	1ab2      	subs	r2, r6, r2
 226:	2a04      	cmp	r2, #4
 228:	da02      	bge.n	230 <Time_Domain_Confirm_HR+0x230>
 22a:	f04f 0a01 	mov.w	sl, #1
 22e:	e00a      	b.n	246 <Time_Domain_Confirm_HR+0x246>
 230:	1c40      	adds	r0, r0, #1
 232:	b200      	sxth	r0, r0
 234:	4584      	cmp	ip, r0
 236:	dcdb      	bgt.n	1f0 <Time_Domain_Confirm_HR+0x1f0>
 238:	f1ba 0f00 	cmp.w	sl, #0
 23c:	d103      	bne.n	246 <Time_Domain_Confirm_HR+0x246>
 23e:	1c49      	adds	r1, r1, #1
 240:	b209      	sxth	r1, r1
 242:	4589      	cmp	r9, r1
 244:	dcc7      	bgt.n	1d6 <Time_Domain_Confirm_HR+0x1d6>
 246:	eb07 0047 	add.w	r0, r7, r7, lsl #1
 24a:	4420      	add	r0, r4
 24c:	f500 5000 	add.w	r0, r0, #8192	; 0x2000
 250:	f890 0ab8 	ldrb.w	r0, [r0, #2744]	; 0xab8
 254:	ea50 000a 	orrs.w	r0, r0, sl
 258:	d1b8      	bne.n	1cc <Time_Domain_Confirm_HR+0x1cc>
 25a:	f895 0efd 	ldrb.w	r0, [r5, #3837]	; 0xefd
 25e:	b970      	cbnz	r0, 27e <Time_Domain_Confirm_HR+0x27e>
 260:	ebc7 00c7 	rsb	r0, r7, r7, lsl #3
 264:	ebc0 2007 	rsb	r0, r0, r7, lsl #8
 268:	eb04 0080 	add.w	r0, r4, r0, lsl #2
 26c:	f500 5080 	add.w	r0, r0, #4096	; 0x1000
 270:	f8b0 09f8 	ldrh.w	r0, [r0, #2552]	; 0x9f8
 274:	f8a5 0b12 	strh.w	r0, [r5, #2834]	; 0xb12
 278:	2000      	movs	r0, #0
 27a:	f885 0f19 	strb.w	r0, [r5, #3865]	; 0xf19
 27e:	2001      	movs	r0, #1
 280:	f885 0ed1 	strb.w	r0, [r5, #3793]	; 0xed1
 284:	e7a2      	b.n	1cc <Time_Domain_Confirm_HR+0x1cc>
 286:	0000      	.short	0x0000
 288:	3f59999a 	.word	0x3f59999a
 28c:	44960000 	.word	0x44960000

Disassembly of section i.check_flag_first_ghr:

00000000 <check_flag_first_ghr>:
   0:	f500 5000 	add.w	r0, r0, #8192	; 0x2000
   4:	2201      	movs	r2, #1
   6:	f9b0 1b12 	ldrsh.w	r1, [r0, #2834]	; 0xb12
   a:	2982      	cmp	r1, #130	; 0x82
   c:	dd05      	ble.n	1a <check_flag_first_ghr+0x1a>
   e:	f9b0 3b16 	ldrsh.w	r3, [r0, #2838]	; 0xb16
  12:	1ac9      	subs	r1, r1, r3
  14:	311d      	adds	r1, #29
  16:	293a      	cmp	r1, #58	; 0x3a
  18:	d801      	bhi.n	1e <check_flag_first_ghr+0x1e>
  1a:	f880 2b11 	strb.w	r2, [r0, #2833]	; 0xb11
  1e:	4770      	bx	lr

Disassembly of section i.check_range:

00000000 <check_range>:
   0:	b510      	push	{r4, lr}
   2:	f500 5000 	add.w	r0, r0, #8192	; 0x2000
   6:	f9b0 4b12 	ldrsh.w	r4, [r0, #2834]	; 0xb12
   a:	f9b0 3b14 	ldrsh.w	r3, [r0, #2836]	; 0xb14
   e:	1ae4      	subs	r4, r4, r3
  10:	428c      	cmp	r4, r1
  12:	dd02      	ble.n	1a <check_range+0x1a>
  14:	189c      	adds	r4, r3, r2
  16:	f8a0 4b12 	strh.w	r4, [r0, #2834]	; 0xb12
  1a:	f9b0 4b12 	ldrsh.w	r4, [r0, #2834]	; 0xb12
  1e:	4249      	negs	r1, r1
  20:	1ae4      	subs	r4, r4, r3
  22:	428c      	cmp	r4, r1
  24:	da02      	bge.n	2c <check_range+0x2c>
  26:	1a99      	subs	r1, r3, r2
  28:	f8a0 1b12 	strh.w	r1, [r0, #2834]	; 0xb12
  2c:	bd10      	pop	{r4, pc}

Disassembly of section i.first_hr_in_motion_chk:

00000000 <first_hr_in_motion_chk>:
   0:	b5f0      	push	{r4, r5, r6, r7, lr}
   2:	f500 5200 	add.w	r2, r0, #8192	; 0x2000
   6:	f892 5b11 	ldrb.w	r5, [r2, #2833]	; 0xb11
   a:	2d00      	cmp	r5, #0
   c:	d127      	bne.n	5e <first_hr_in_motion_chk+0x5e>
   e:	1e6b      	subs	r3, r5, #1
  10:	461c      	mov	r4, r3
  12:	2100      	movs	r1, #0
  14:	f9b0 60bc 	ldrsh.w	r6, [r0, #188]	; 0xbc
  18:	e00f      	b.n	3a <first_hr_in_motion_chk+0x3a>
  1a:	bf00      	nop
  1c:	eb00 0c41 	add.w	ip, r0, r1, lsl #1
  20:	f50c 5c00 	add.w	ip, ip, #8192	; 0x2000
  24:	f8bc 7f44 	ldrh.w	r7, [ip, #3908]	; 0xf44
  28:	2f04      	cmp	r7, #4
  2a:	d304      	bcc.n	36 <first_hr_in_motion_chk+0x36>
  2c:	42a7      	cmp	r7, r4
  2e:	dd02      	ble.n	36 <first_hr_in_motion_chk+0x36>
  30:	f9bc 4f44 	ldrsh.w	r4, [ip, #3908]	; 0xf44
  34:	460b      	mov	r3, r1
  36:	1c49      	adds	r1, r1, #1
  38:	b209      	sxth	r1, r1
  3a:	428e      	cmp	r6, r1
  3c:	dcee      	bgt.n	1c <first_hr_in_motion_chk+0x1c>
  3e:	2101      	movs	r1, #1
  40:	2b00      	cmp	r3, #0
  42:	db0d      	blt.n	60 <first_hr_in_motion_chk+0x60>
  44:	eb00 0043 	add.w	r0, r0, r3, lsl #1
  48:	f500 5000 	add.w	r0, r0, #8192	; 0x2000
  4c:	f8b0 0f48 	ldrh.w	r0, [r0, #3912]	; 0xf48
  50:	f8a2 0b12 	strh.w	r0, [r2, #2834]	; 0xb12
  54:	2000      	movs	r0, #0
  56:	f882 0f19 	strb.w	r0, [r2, #3865]	; 0xf19
  5a:	f882 1b11 	strb.w	r1, [r2, #2833]	; 0xb11
  5e:	bdf0      	pop	{r4, r5, r6, r7, pc}
  60:	2d00      	cmp	r5, #0
  62:	d1fc      	bne.n	5e <first_hr_in_motion_chk+0x5e>
  64:	f892 0b81 	ldrb.w	r0, [r2, #2945]	; 0xb81
  68:	2800      	cmp	r0, #0
  6a:	d1f8      	bne.n	5e <first_hr_in_motion_chk+0x5e>
  6c:	f882 1b81 	strb.w	r1, [r2, #2945]	; 0xb81
  70:	bdf0      	pop	{r4, r5, r6, r7, pc}

Disassembly of section i.found_hr_idx:

00000000 <found_hr_idx>:
   0:	e92d 4ff0 	stmdb	sp!, {r4, r5, r6, r7, r8, r9, sl, fp, lr}
   4:	f500 5100 	add.w	r1, r0, #8192	; 0x2000
   8:	2300      	movs	r3, #0
   a:	f9b1 2f3c 	ldrsh.w	r2, [r1, #3900]	; 0xf3c
   e:	2a00      	cmp	r2, #0
  10:	dd54      	ble.n	bc <found_hr_idx+0xbc>
  12:	f9b1 4f40 	ldrsh.w	r4, [r1, #3904]	; 0xf40
  16:	b14c      	cbz	r4, 2c <found_hr_idx+0x2c>
  18:	f9b1 5f3e 	ldrsh.w	r5, [r1, #3902]	; 0xf3e
  1c:	1aad      	subs	r5, r5, r2
  1e:	1d2d      	adds	r5, r5, #4
  20:	2d08      	cmp	r5, #8
  22:	d804      	bhi.n	2e <found_hr_idx+0x2e>
  24:	1c64      	adds	r4, r4, #1
  26:	f8a1 4f40 	strh.w	r4, [r1, #3904]	; 0xf40
  2a:	e002      	b.n	32 <found_hr_idx+0x32>
  2c:	2301      	movs	r3, #1
  2e:	f8a1 3f40 	strh.w	r3, [r1, #3904]	; 0xf40
  32:	f04f 0800 	mov.w	r8, #0
  36:	4643      	mov	r3, r8
  38:	f641 1ef0 	movw	lr, #6640	; 0x19f0
  3c:	f9b0 70bc 	ldrsh.w	r7, [r0, #188]	; 0xbc
  40:	e027      	b.n	92 <found_hr_idx+0x92>
  42:	bf00      	nop
  44:	ebc3 04c3 	rsb	r4, r3, r3, lsl #3
  48:	ebc4 2403 	rsb	r4, r4, r3, lsl #8
  4c:	eb00 0684 	add.w	r6, r0, r4, lsl #2
  50:	eb06 050e 	add.w	r5, r6, lr
  54:	f506 5980 	add.w	r9, r6, #4096	; 0x1000
  58:	eb00 0643 	add.w	r6, r0, r3, lsl #1
  5c:	f506 5a00 	add.w	sl, r6, #8192	; 0x2000
  60:	2400      	movs	r4, #0
  62:	f9b5 600e 	ldrsh.w	r6, [r5, #14]
  66:	e010      	b.n	8a <found_hr_idx+0x8a>
  68:	eb05 0c44 	add.w	ip, r5, r4, lsl #1
  6c:	f9bc c008 	ldrsh.w	ip, [ip, #8]
  70:	4562      	cmp	r2, ip
  72:	d108      	bne.n	86 <found_hr_idx+0x86>
  74:	f899 cdd0 	ldrb.w	ip, [r9, #3536]	; 0xdd0
  78:	f1bc 0f00 	cmp.w	ip, #0
  7c:	d103      	bne.n	86 <found_hr_idx+0x86>
  7e:	f8ba bf4c 	ldrh.w	fp, [sl, #3916]	; 0xf4c
  82:	f04f 0801 	mov.w	r8, #1
  86:	1c64      	adds	r4, r4, #1
  88:	b224      	sxth	r4, r4
  8a:	42a6      	cmp	r6, r4
  8c:	dcec      	bgt.n	68 <found_hr_idx+0x68>
  8e:	1c5b      	adds	r3, r3, #1
  90:	b21b      	sxth	r3, r3
  92:	429f      	cmp	r7, r3
  94:	dcd6      	bgt.n	44 <found_hr_idx+0x44>
  96:	f890 00f7 	ldrb.w	r0, [r0, #247]	; 0xf7
  9a:	2801      	cmp	r0, #1
  9c:	d104      	bne.n	a8 <found_hr_idx+0xa8>
  9e:	f1b8 0f01 	cmp.w	r8, #1
  a2:	d101      	bne.n	a8 <found_hr_idx+0xa8>
  a4:	455a      	cmp	r2, fp
  a6:	d003      	beq.n	b0 <found_hr_idx+0xb0>
  a8:	f9b1 0f40 	ldrsh.w	r0, [r1, #3904]	; 0xf40
  ac:	2805      	cmp	r0, #5
  ae:	dd01      	ble.n	b4 <found_hr_idx+0xb4>
  b0:	f8a1 2b12 	strh.w	r2, [r1, #2834]	; 0xb12
  b4:	f8a1 2f3e 	strh.w	r2, [r1, #3902]	; 0xf3e
  b8:	e8bd 8ff0 	ldmia.w	sp!, {r4, r5, r6, r7, r8, r9, sl, fp, pc}
  bc:	f8a1 3f40 	strh.w	r3, [r1, #3904]	; 0xf40
  c0:	f8a1 3f3e 	strh.w	r3, [r1, #3902]	; 0xf3e
  c4:	e7f8      	b.n	b8 <found_hr_idx+0xb8>

filter8002_fixed.o:     file format elf32-littlearm


Disassembly of section i.HR_IIR_LP_Filter_Process:

00000000 <HR_IIR_LP_Filter_Process>:
   0:	f9b0 1000 	ldrsh.w	r1, [r0]
   4:	b1a9      	cbz	r1, 32 <HR_IIR_LP_Filter_Process+0x32>
   6:	edd0 0a01 	vldr	s1, [r0, #4]
   a:	ed90 1a02 	vldr	s2, [r0, #8]
   e:	eef7 1a00 	vmov.f32	s3, #112	; 0x3f800000  1.0
  12:	ee20 1a81 	vmul.f32	s2, s1, s2
  16:	ee71 0ae0 	vsub.f32	s1, s3, s1
  1a:	ee00 1a80 	vmla.f32	s2, s1, s0
  1e:	ed80 1a02 	vstr	s2, [r0, #8]
  22:	1c49      	adds	r1, r1, #1
  24:	b209      	sxth	r1, r1
  26:	8001      	strh	r1, [r0, #0]
  28:	2901      	cmp	r1, #1
  2a:	dd01      	ble.n	30 <HR_IIR_LP_Filter_Process+0x30>
  2c:	2101      	movs	r1, #1
  2e:	8001      	strh	r1, [r0, #0]
  30:	4770      	bx	lr
  32:	ed80 0a02 	vstr	s0, [r0, #8]
  36:	e7f4      	b.n	22 <HR_IIR_LP_Filter_Process+0x22>

Disassembly of section i.HR_Init_IIR_LP_Filter:

00000000 <HR_Init_IIR_LP_Filter>:
   0:	ed80 0a01 	vstr	s0, [r0, #4]
   4:	2100      	movs	r1, #0
   6:	ed9f 0a03 	vldr	s0, [pc, #12]	; 14 <HR_Init_IIR_LP_Filter+0x14>
   a:	8001      	strh	r1, [r0, #0]
   c:	ed80 0a02 	vstr	s0, [r0, #8]
  10:	4770      	bx	lr
  12:	0000      	.short	0x0000
  14:	00000000 	.word	0x00000000

Disassembly of section i.HR_Init_Med_Filter:

00000000 <HR_Init_Med_Filter>:
   0:	2105      	movs	r1, #5
   2:	8001      	strh	r1, [r0, #0]
   4:	2100      	movs	r1, #0
   6:	ed9f 0a09 	vldr	s0, [pc, #36]	; 2c <HR_Init_Med_Filter+0x2c>
   a:	e005      	b.n	18 <HR_Init_Med_Filter+0x18>
   c:	eb00 0281 	add.w	r2, r0, r1, lsl #2
  10:	1c49      	adds	r1, r1, #1
  12:	ed82 0a01 	vstr	s0, [r2, #4]
  16:	b209      	sxth	r1, r1
  18:	f9b0 2000 	ldrsh.w	r2, [r0]
  1c:	428a      	cmp	r2, r1
  1e:	dcf5      	bgt.n	c <HR_Init_Med_Filter+0xc>
  20:	2100      	movs	r1, #0
  22:	8041      	strh	r1, [r0, #2]
  24:	ed80 0a06 	vstr	s0, [r0, #24]
  28:	4770      	bx	lr
  2a:	0000      	.short	0x0000
  2c:	00000000 	.word	0x00000000

Disassembly of section i.HR_Init_Smooth_Pred_Process:

00000000 <HR_Init_Smooth_Pred_Process>:
   0:	eddf 0a03 	vldr	s1, [pc, #12]	; 10 <HR_Init_Smooth_Pred_Process+0x10>
   4:	edc0 0a04 	vstr	s1, [r0, #16]
   8:	ece0 0a01 	vstmia	r0!, {s1}
   c:	f7ff bffe 	b.w	0 <HR_Init_Smooth_Pred_Process>
  10:	00000000 	.word	0x00000000

Disassembly of section i.HR_Med_Filter_Process:

00000000 <HR_Med_Filter_Process>:
   0:	b5f0      	push	{r4, r5, r6, r7, lr}
   2:	4604      	mov	r4, r0
   4:	8840      	ldrh	r0, [r0, #2]
   6:	b085      	sub	sp, #20
   8:	b130      	cbz	r0, 18 <HR_Med_Filter_Process+0x18>
   a:	e00a      	b.n	22 <HR_Med_Filter_Process+0x22>
   c:	eb04 0180 	add.w	r1, r4, r0, lsl #2
  10:	1c40      	adds	r0, r0, #1
  12:	ed81 0a01 	vstr	s0, [r1, #4]
  16:	b200      	sxth	r0, r0
  18:	f9b4 1000 	ldrsh.w	r1, [r4]
  1c:	1e49      	subs	r1, r1, #1
  1e:	4281      	cmp	r1, r0
  20:	dcf4      	bgt.n	c <HR_Med_Filter_Process+0xc>
  22:	8820      	ldrh	r0, [r4, #0]
  24:	e006      	b.n	34 <HR_Med_Filter_Process+0x34>
  26:	bf00      	nop
  28:	eb04 0180 	add.w	r1, r4, r0, lsl #2
  2c:	edd1 0a00 	vldr	s1, [r1]
  30:	edc1 0a01 	vstr	s1, [r1, #4]
  34:	1e40      	subs	r0, r0, #1
  36:	b200      	sxth	r0, r0
  38:	2800      	cmp	r0, #0
  3a:	dcf5      	bgt.n	28 <HR_Med_Filter_Process+0x28>
  3c:	ed84 0a01 	vstr	s0, [r4, #4]
  40:	8860      	ldrh	r0, [r4, #2]
  42:	1c40      	adds	r0, r0, #1
  44:	b201      	sxth	r1, r0
  46:	8061      	strh	r1, [r4, #2]
  48:	f9b4 0000 	ldrsh.w	r0, [r4]
  4c:	4281      	cmp	r1, r0
  4e:	dd00      	ble.n	52 <HR_Med_Filter_Process+0x52>
  50:	8060      	strh	r0, [r4, #2]
  52:	0082      	lsls	r2, r0, #2
  54:	1d21      	adds	r1, r4, #4
  56:	4668      	mov	r0, sp
  58:	f7ff fffe 	bl	0 <__aeabi_memcpy4>
  5c:	f9b4 2000 	ldrsh.w	r2, [r4]
  60:	2000      	movs	r0, #0
  62:	4669      	mov	r1, sp
  64:	1e55      	subs	r5, r2, #1
  66:	e022      	b.n	ae <HR_Med_Filter_Process+0xae>
  68:	eb01 0780 	add.w	r7, r1, r0, lsl #2
  6c:	4603      	mov	r3, r0
  6e:	ed97 0a00 	vldr	s0, [r7]
  72:	1c40      	adds	r0, r0, #1
  74:	b200      	sxth	r0, r0
  76:	eef0 0a40 	vmov.f32	s1, s0
  7a:	4606      	mov	r6, r0
  7c:	e00e      	b.n	9c <HR_Med_Filter_Process+0x9c>
  7e:	bf00      	nop
  80:	eb01 0c80 	add.w	ip, r1, r0, lsl #2
  84:	ed9c 1a00 	vldr	s2, [ip]
  88:	eeb4 1ac0 	vcmpe.f32	s2, s0
  8c:	eef1 fa10 	vmrs	APSR_nzcv, fpscr
  90:	dd02      	ble.n	98 <HR_Med_Filter_Process+0x98>
  92:	eeb0 0a41 	vmov.f32	s0, s2
  96:	4603      	mov	r3, r0
  98:	1c40      	adds	r0, r0, #1
  9a:	b200      	sxth	r0, r0
  9c:	4282      	cmp	r2, r0
  9e:	dcef      	bgt.n	80 <HR_Med_Filter_Process+0x80>
  a0:	eb01 0083 	add.w	r0, r1, r3, lsl #2
  a4:	ed87 0a00 	vstr	s0, [r7]
  a8:	edc0 0a00 	vstr	s1, [r0]
  ac:	4630      	mov	r0, r6
  ae:	4285      	cmp	r5, r0
  b0:	dcda      	bgt.n	68 <HR_Med_Filter_Process+0x68>
  b2:	1050      	asrs	r0, r2, #1
  b4:	eb01 0080 	add.w	r0, r1, r0, lsl #2
  b8:	ed90 0a00 	vldr	s0, [r0]
  bc:	ed84 0a06 	vstr	s0, [r4, #24]
  c0:	b005      	add	sp, #20
  c2:	bdf0      	pop	{r4, r5, r6, r7, pc}

Disassembly of section i.HR_Smooth_Pred_Process:

00000000 <HR_Smooth_Pred_Process>:
   0:	b500      	push	{lr}
   2:	4602      	mov	r2, r0
   4:	8880      	ldrh	r0, [r0, #4]
   6:	eeb0 2a40 	vmov.f32	s4, s0
   a:	b118      	cbz	r0, 14 <HR_Smooth_Pred_Process+0x14>
   c:	4915      	ldr	r1, [pc, #84]	; (64 <HR_Smooth_Pred_Process+0x64>)
   e:	6890      	ldr	r0, [r2, #8]
  10:	4288      	cmp	r0, r1
  12:	dd04      	ble.n	1e <HR_Smooth_Pred_Process+0x1e>
  14:	ed9f 0a14 	vldr	s0, [pc, #80]	; 68 <HR_Smooth_Pred_Process+0x68>
  18:	ed82 0a04 	vstr	s0, [r2, #16]
  1c:	e003      	b.n	26 <HR_Smooth_Pred_Process+0x26>
  1e:	ed92 0a00 	vldr	s0, [r2]
  22:	ee32 0a40 	vsub.f32	s0, s4, s0
  26:	1d10      	adds	r0, r2, #4
  28:	f7ff fffe 	bl	0 <HR_Smooth_Pred_Process>
  2c:	ed92 0a03 	vldr	s0, [r2, #12]
  30:	eef0 0a00 	vmov.f32	s1, #0	; 0x40000000  2.0
  34:	ee10 0a10 	vmov	r0, s0
  38:	f1b0 5f7e 	cmp.w	r0, #1065353216	; 0x3f800000
  3c:	dd02      	ble.n	44 <HR_Smooth_Pred_Process+0x44>
  3e:	edc2 0a04 	vstr	s1, [r2, #16]
  42:	e00b      	b.n	5c <HR_Smooth_Pred_Process+0x5c>
  44:	ee10 0a10 	vmov	r0, s0
  48:	f110 4f81 	cmn.w	r0, #1082130432	; 0x40800000
  4c:	d902      	bls.n	54 <HR_Smooth_Pred_Process+0x54>
  4e:	eeb8 0a00 	vmov.f32	s0, #128	; 0xc0000000 -2.0
  52:	e001      	b.n	58 <HR_Smooth_Pred_Process+0x58>
  54:	ee20 0a20 	vmul.f32	s0, s0, s1
  58:	ed82 0a04 	vstr	s0, [r2, #16]
  5c:	ed82 2a00 	vstr	s4, [r2]
  60:	bd00      	pop	{pc}
  62:	0000      	.short	0x0000
  64:	3f7ff972 	.word	0x3f7ff972
  68:	00000000 	.word	0x00000000

Disassembly of section i.filter_common:

00000000 <filter_common>:
   0:	e92d 4ff0 	stmdb	sp!, {r4, r5, r6, r7, r8, r9, sl, fp, lr}
   4:	b087      	sub	sp, #28
   6:	4689      	mov	r9, r1
   8:	e9dd 1411 	ldrd	r1, r4, [sp, #68]	; 0x44
   c:	461e      	mov	r6, r3
   e:	4690      	mov	r8, r2
  10:	f850 0024 	ldr.w	r0, [r0, r4, lsl #2]
  14:	9d10      	ldr	r5, [sp, #64]	; 0x40
  16:	f7ff fffe 	bl	0 <filter_common>
  1a:	eb04 0a44 	add.w	sl, r4, r4, lsl #1
  1e:	9000      	str	r0, [sp, #0]
  20:	f858 002a 	ldr.w	r0, [r8, sl, lsl #2]
  24:	9900      	ldr	r1, [sp, #0]
  26:	f7ff fffe 	bl	0 <filter_common>
  2a:	eb08 088a 	add.w	r8, r8, sl, lsl #2
  2e:	4607      	mov	r7, r0
  30:	f856 1034 	ldr.w	r1, [r6, r4, lsl #3]
  34:	f8d8 0004 	ldr.w	r0, [r8, #4]
  38:	f7ff fffe 	bl	0 <filter_common>
  3c:	eb06 0bc4 	add.w	fp, r6, r4, lsl #3
  40:	4407      	add	r7, r0
  42:	f8db 1004 	ldr.w	r1, [fp, #4]
  46:	f8d8 0008 	ldr.w	r0, [r8, #8]
  4a:	f7ff fffe 	bl	0 <filter_common>
  4e:	4438      	add	r0, r7
  50:	9005      	str	r0, [sp, #20]
  52:	9813      	ldr	r0, [sp, #76]	; 0x4c
  54:	f855 1034 	ldr.w	r1, [r5, r4, lsl #3]
  58:	2801      	cmp	r0, #1
  5a:	f859 0034 	ldr.w	r0, [r9, r4, lsl #3]
  5e:	eb09 0ac4 	add.w	sl, r9, r4, lsl #3
  62:	eb05 08c4 	add.w	r8, r5, r4, lsl #3
  66:	d01d      	beq.n	3e <filter_common+0x3e>
  68:	f7ff fffe 	bl	0 <filter_common>
  6c:	9905      	ldr	r1, [sp, #20]
  6e:	1a0f      	subs	r7, r1, r0
  70:	f8d8 1004 	ldr.w	r1, [r8, #4]
  74:	f8da 0004 	ldr.w	r0, [sl, #4]
  78:	f7ff fffe 	bl	0 <filter_common>
  7c:	1a38      	subs	r0, r7, r0
  7e:	9005      	str	r0, [sp, #20]
  80:	f856 1034 	ldr.w	r1, [r6, r4, lsl #3]
  84:	f8cb 1004 	str.w	r1, [fp, #4]
  88:	9800      	ldr	r0, [sp, #0]
  8a:	f846 0034 	str.w	r0, [r6, r4, lsl #3]
  8e:	f855 1034 	ldr.w	r1, [r5, r4, lsl #3]
  92:	f8c8 1004 	str.w	r1, [r8, #4]
  96:	9805      	ldr	r0, [sp, #20]
  98:	f845 0034 	str.w	r0, [r5, r4, lsl #3]
  9c:	9805      	ldr	r0, [sp, #20]
  9e:	b007      	add	sp, #28
  a0:	e8bd 8ff0 	ldmia.w	sp!, {r4, r5, r6, r7, r8, r9, sl, fp, pc}
  a4:	f7ff fffe 	bl	0 <filter_common>
  a8:	9905      	ldr	r1, [sp, #20]
  aa:	1a0f      	subs	r7, r1, r0
  ac:	f8d8 1004 	ldr.w	r1, [r8, #4]
  b0:	f8da 0004 	ldr.w	r0, [sl, #4]
  b4:	f7ff fffe 	bl	0 <filter_common>
  b8:	e7e0      	b.n	7c <filter_common+0x7c>

Disassembly of section i.hpf20hz_fixed_c:

00000000 <hpf20hz_fixed_c>:
   0:	e92d 41ff 	stmdb	sp!, {r0, r1, r2, r3, r4, r5, r6, r7, r8, lr}
   4:	4604      	mov	r4, r0
   6:	f890 0030 	ldrb.w	r0, [r0, #48]	; 0x30
   a:	2601      	movs	r6, #1
   c:	b908      	cbnz	r0, 12 <hpf20hz_fixed_c+0x12>
   e:	f884 6030 	strb.w	r6, [r4, #48]	; 0x30
  12:	f104 0718 	add.w	r7, r4, #24
  16:	2500      	movs	r5, #0
  18:	9700      	str	r7, [sp, #0]
  1a:	e9cd 1501 	strd	r1, r5, [sp, #4]
  1e:	9503      	str	r5, [sp, #12]
  20:	e9d4 100f 	ldrd	r1, r0, [r4, #60]	; 0x3c
  24:	4623      	mov	r3, r4
  26:	6ba2      	ldr	r2, [r4, #56]	; 0x38
  28:	f7ff fffe 	bl	0 <hpf20hz_fixed_c>
  2c:	9700      	str	r7, [sp, #0]
  2e:	9503      	str	r5, [sp, #12]
  30:	e9cd 0601 	strd	r0, r6, [sp, #4]
  34:	e9d4 100f 	ldrd	r1, r0, [r4, #60]	; 0x3c
  38:	4623      	mov	r3, r4
  3a:	6ba2      	ldr	r2, [r4, #56]	; 0x38
  3c:	f7ff fffe 	bl	0 <hpf20hz_fixed_c>
  40:	4601      	mov	r1, r0
  42:	2002      	movs	r0, #2
  44:	9700      	str	r7, [sp, #0]
  46:	9503      	str	r5, [sp, #12]
  48:	e9cd 1001 	strd	r1, r0, [sp, #4]
  4c:	e9d4 100f 	ldrd	r1, r0, [r4, #60]	; 0x3c
  50:	4623      	mov	r3, r4
  52:	6ba2      	ldr	r2, [r4, #56]	; 0x38
  54:	f7ff fffe 	bl	0 <hpf20hz_fixed_c>
  58:	b004      	add	sp, #16
  5a:	e8bd 81f0 	ldmia.w	sp!, {r4, r5, r6, r7, r8, pc}

Disassembly of section i.hpf20hz_fixed_c_initialize:

00000000 <hpf20hz_fixed_c_initialize>:
   0:	4903      	ldr	r1, [pc, #12]	; (10 <hpf20hz_fixed_c_initialize+0x10>)
   2:	6401      	str	r1, [r0, #64]	; 0x40
   4:	3110      	adds	r1, #16
   6:	63c1      	str	r1, [r0, #60]	; 0x3c
   8:	3118      	adds	r1, #24
   a:	6381      	str	r1, [r0, #56]	; 0x38
   c:	4770      	bx	lr
   e:	0000      	.short	0x0000
  10:	00000064 	.word	0x00000064

Disassembly of section i.hpf_20hz_5_fixed_c:

00000000 <hpf_20hz_5_fixed_c>:
   0:	e92d 41ff 	stmdb	sp!, {r0, r1, r2, r3, r4, r5, r6, r7, r8, lr}
   4:	4604      	mov	r4, r0
   6:	f890 0030 	ldrb.w	r0, [r0, #48]	; 0x30
   a:	2601      	movs	r6, #1
   c:	b908      	cbnz	r0, 12 <hpf_20hz_5_fixed_c+0x12>
   e:	f884 6030 	strb.w	r6, [r4, #48]	; 0x30
  12:	f104 0718 	add.w	r7, r4, #24
  16:	2500      	movs	r5, #0
  18:	9700      	str	r7, [sp, #0]
  1a:	e9cd 1501 	strd	r1, r5, [sp, #4]
  1e:	9503      	str	r5, [sp, #12]
  20:	e9d4 100f 	ldrd	r1, r0, [r4, #60]	; 0x3c
  24:	4623      	mov	r3, r4
  26:	6ba2      	ldr	r2, [r4, #56]	; 0x38
  28:	f7ff fffe 	bl	0 <hpf_20hz_5_fixed_c>
  2c:	9700      	str	r7, [sp, #0]
  2e:	9503      	str	r5, [sp, #12]
  30:	e9cd 0601 	strd	r0, r6, [sp, #4]
  34:	e9d4 100f 	ldrd	r1, r0, [r4, #60]	; 0x3c
  38:	4623      	mov	r3, r4
  3a:	6ba2      	ldr	r2, [r4, #56]	; 0x38
  3c:	f7ff fffe 	bl	0 <hpf_20hz_5_fixed_c>
  40:	4601      	mov	r1, r0
  42:	2002      	movs	r0, #2
  44:	9700      	str	r7, [sp, #0]
  46:	9503      	str	r5, [sp, #12]
  48:	e9cd 1001 	strd	r1, r0, [sp, #4]
  4c:	e9d4 100f 	ldrd	r1, r0, [r4, #60]	; 0x3c
  50:	4623      	mov	r3, r4
  52:	6ba2      	ldr	r2, [r4, #56]	; 0x38
  54:	f7ff fffe 	bl	0 <hpf_20hz_5_fixed_c>
  58:	b004      	add	sp, #16
  5a:	e8bd 81f0 	ldmia.w	sp!, {r4, r5, r6, r7, r8, pc}

Disassembly of section i.hpf_20hz_5_fixed_c_initialize:

00000000 <hpf_20hz_5_fixed_c_initialize>:
   0:	4903      	ldr	r1, [pc, #12]	; (10 <hpf_20hz_5_fixed_c_initialize+0x10>)
   2:	6401      	str	r1, [r0, #64]	; 0x40
   4:	3110      	adds	r1, #16
   6:	63c1      	str	r1, [r0, #60]	; 0x3c
   8:	3118      	adds	r1, #24
   a:	6381      	str	r1, [r0, #56]	; 0x38
   c:	4770      	bx	lr
   e:	0000      	.short	0x0000
  10:	00000114 	.word	0x00000114

Disassembly of section i.lpf20hz_fixed_c:

00000000 <lpf20hz_fixed_c>:
   0:	b57f      	push	{r0, r1, r2, r3, r4, r5, r6, lr}
   2:	4604      	mov	r4, r0
   4:	f890 0040 	ldrb.w	r0, [r0, #64]	; 0x40
   8:	2501      	movs	r5, #1
   a:	b908      	cbnz	r0, 10 <lpf20hz_fixed_c+0x10>
   c:	f884 5040 	strb.w	r5, [r4, #64]	; 0x40
  10:	f104 0620 	add.w	r6, r4, #32
  14:	a801      	add	r0, sp, #4
  16:	2200      	movs	r2, #0
  18:	9600      	str	r6, [sp, #0]
  1a:	e880 0026 	stmia.w	r0, {r1, r2, r5}
  1e:	e9d4 1013 	ldrd	r1, r0, [r4, #76]	; 0x4c
  22:	4623      	mov	r3, r4
  24:	6ca2      	ldr	r2, [r4, #72]	; 0x48
  26:	f7ff fffe 	bl	0 <lpf20hz_fixed_c>
  2a:	9600      	str	r6, [sp, #0]
  2c:	e9cd 0501 	strd	r0, r5, [sp, #4]
  30:	9503      	str	r5, [sp, #12]
  32:	e9d4 1013 	ldrd	r1, r0, [r4, #76]	; 0x4c
  36:	4623      	mov	r3, r4
  38:	6ca2      	ldr	r2, [r4, #72]	; 0x48
  3a:	f7ff fffe 	bl	0 <lpf20hz_fixed_c>
  3e:	aa01      	add	r2, sp, #4
  40:	2102      	movs	r1, #2
  42:	9600      	str	r6, [sp, #0]
  44:	e882 0023 	stmia.w	r2, {r0, r1, r5}
  48:	e9d4 1013 	ldrd	r1, r0, [r4, #76]	; 0x4c
  4c:	4623      	mov	r3, r4
  4e:	6ca2      	ldr	r2, [r4, #72]	; 0x48
  50:	f7ff fffe 	bl	0 <lpf20hz_fixed_c>
  54:	4601      	mov	r1, r0
  56:	2003      	movs	r0, #3
  58:	9600      	str	r6, [sp, #0]
  5a:	9503      	str	r5, [sp, #12]
  5c:	e9cd 1001 	strd	r1, r0, [sp, #4]
  60:	e9d4 1013 	ldrd	r1, r0, [r4, #76]	; 0x4c
  64:	4623      	mov	r3, r4
  66:	6ca2      	ldr	r2, [r4, #72]	; 0x48
  68:	f7ff fffe 	bl	0 <lpf20hz_fixed_c>
  6c:	b004      	add	sp, #16
  6e:	bd70      	pop	{r4, r5, r6, pc}

Disassembly of section i.lpf20hz_fixed_c_initialize:

00000000 <lpf20hz_fixed_c_initialize>:
   0:	4903      	ldr	r1, [pc, #12]	; (10 <lpf20hz_fixed_c_initialize+0x10>)
   2:	6501      	str	r1, [r0, #80]	; 0x50
   4:	3114      	adds	r1, #20
   6:	64c1      	str	r1, [r0, #76]	; 0x4c
   8:	3120      	adds	r1, #32
   a:	6481      	str	r1, [r0, #72]	; 0x48
   c:	4770      	bx	lr
   e:	0000      	.short	0x0000
  10:	00000000 	.word	0x00000000

Disassembly of section i.lpf_20hz_6hz_fixed_c:

00000000 <lpf_20hz_6hz_fixed_c>:
   0:	e92d 41ff 	stmdb	sp!, {r0, r1, r2, r3, r4, r5, r6, r7, r8, lr}
   4:	4604      	mov	r4, r0
   6:	f890 0040 	ldrb.w	r0, [r0, #64]	; 0x40
   a:	2601      	movs	r6, #1
   c:	b908      	cbnz	r0, 12 <lpf_20hz_6hz_fixed_c+0x12>
   e:	f884 6040 	strb.w	r6, [r4, #64]	; 0x40
  12:	f104 0720 	add.w	r7, r4, #32
  16:	2500      	movs	r5, #0
  18:	9700      	str	r7, [sp, #0]
  1a:	e9cd 1501 	strd	r1, r5, [sp, #4]
  1e:	9503      	str	r5, [sp, #12]
  20:	e9d4 1013 	ldrd	r1, r0, [r4, #76]	; 0x4c
  24:	4623      	mov	r3, r4
  26:	6ca2      	ldr	r2, [r4, #72]	; 0x48
  28:	f7ff fffe 	bl	0 <lpf_20hz_6hz_fixed_c>
  2c:	9700      	str	r7, [sp, #0]
  2e:	9503      	str	r5, [sp, #12]
  30:	e9cd 0601 	strd	r0, r6, [sp, #4]
  34:	e9d4 1013 	ldrd	r1, r0, [r4, #76]	; 0x4c
  38:	4623      	mov	r3, r4
  3a:	6ca2      	ldr	r2, [r4, #72]	; 0x48
  3c:	f7ff fffe 	bl	0 <lpf_20hz_6hz_fixed_c>
  40:	4601      	mov	r1, r0
  42:	2002      	movs	r0, #2
  44:	9700      	str	r7, [sp, #0]
  46:	9503      	str	r5, [sp, #12]
  48:	e9cd 1001 	strd	r1, r0, [sp, #4]
  4c:	e9d4 1013 	ldrd	r1, r0, [r4, #76]	; 0x4c
  50:	4623      	mov	r3, r4
  52:	6ca2      	ldr	r2, [r4, #72]	; 0x48
  54:	f7ff fffe 	bl	0 <lpf_20hz_6hz_fixed_c>
  58:	4601      	mov	r1, r0
  5a:	2003      	movs	r0, #3
  5c:	9700      	str	r7, [sp, #0]
  5e:	9503      	str	r5, [sp, #12]
  60:	e9cd 1001 	strd	r1, r0, [sp, #4]
  64:	e9d4 1013 	ldrd	r1, r0, [r4, #76]	; 0x4c
  68:	4623      	mov	r3, r4
  6a:	6ca2      	ldr	r2, [r4, #72]	; 0x48
  6c:	f7ff fffe 	bl	0 <lpf_20hz_6hz_fixed_c>
  70:	b004      	add	sp, #16
  72:	e8bd 81f0 	ldmia.w	sp!, {r4, r5, r6, r7, r8, pc}

Disassembly of section i.lpf_20hz_6hz_fixed_c_initialize:

00000000 <lpf_20hz_6hz_fixed_c_initialize>:
   0:	4903      	ldr	r1, [pc, #12]	; (10 <lpf_20hz_6hz_fixed_c_initialize+0x10>)
   2:	6501      	str	r1, [r0, #80]	; 0x50
   4:	3114      	adds	r1, #20
   6:	64c1      	str	r1, [r0, #76]	; 0x4c
   8:	3120      	adds	r1, #32
   a:	6481      	str	r1, [r0, #72]	; 0x48
   c:	4770      	bx	lr
   e:	0000      	.short	0x0000
  10:	000000b0 	.word	0x000000b0

Disassembly of section i.mul_s32_s32_s32_sr30:

00000000 <mul_s32_s32_s32_sr30>:
   0:	fb80 1001 	smull	r1, r0, r0, r1
   4:	0082      	lsls	r2, r0, #2
   6:	ea42 7091 	orr.w	r0, r2, r1, lsr #30
   a:	4770      	bx	lr

Disassembly of section i.mul_s32_s32_s32_sr31:

00000000 <mul_s32_s32_s32_sr31>:
   0:	fb80 1001 	smull	r1, r0, r0, r1
   4:	0042      	lsls	r2, r0, #1
   6:	ea42 70d1 	orr.w	r0, r2, r1, lsr #31
   a:	4770      	bx	lr

harmonic_grp_tracking.o:     file format elf32-littlearm


Disassembly of section i.Avg_Hr_In_Static_Update:

00000000 <Avg_Hr_In_Static_Update>:
   0:	b570      	push	{r4, r5, r6, lr}
   2:	f500 5400 	add.w	r4, r0, #8192	; 0x2000
   6:	4605      	mov	r5, r0
   8:	f894 0b11 	ldrb.w	r0, [r4, #2833]	; 0xb11
   c:	2801      	cmp	r0, #1
   e:	d152      	bne.n	b6 <Avg_Hr_In_Static_Update+0xb6>
  10:	f894 0b50 	ldrb.w	r0, [r4, #2896]	; 0xb50
  14:	2801      	cmp	r0, #1
  16:	d14e      	bne.n	b6 <Avg_Hr_In_Static_Update+0xb6>
  18:	f8d4 1884 	ldr.w	r1, [r4, #2180]	; 0x884
  1c:	2964      	cmp	r1, #100	; 0x64
  1e:	da4a      	bge.n	b6 <Avg_Hr_In_Static_Update+0xb6>
  20:	f9b4 2b4c 	ldrsh.w	r2, [r4, #2892]	; 0xb4c
  24:	f9b5 004c 	ldrsh.w	r0, [r5, #76]	; 0x4c
  28:	4282      	cmp	r2, r0
  2a:	dc03      	bgt.n	34 <Avg_Hr_In_Static_Update+0x34>
  2c:	f9b5 304e 	ldrsh.w	r3, [r5, #78]	; 0x4e
  30:	429a      	cmp	r2, r3
  32:	da1a      	bge.n	6a <Avg_Hr_In_Static_Update+0x6a>
  34:	f894 2951 	ldrb.w	r2, [r4, #2385]	; 0x951
  38:	b9ba      	cbnz	r2, 6a <Avg_Hr_In_Static_Update+0x6a>
  3a:	f9b4 2b12 	ldrsh.w	r2, [r4, #2834]	; 0xb12
  3e:	f9b5 304e 	ldrsh.w	r3, [r5, #78]	; 0x4e
  42:	429a      	cmp	r2, r3
  44:	dd11      	ble.n	6a <Avg_Hr_In_Static_Update+0x6a>
  46:	4282      	cmp	r2, r0
  48:	da0f      	bge.n	6a <Avg_Hr_In_Static_Update+0x6a>
  4a:	f9b4 09e6 	ldrsh.w	r0, [r4, #2534]	; 0x9e6
  4e:	2800      	cmp	r0, #0
  50:	dd31      	ble.n	b6 <Avg_Hr_In_Static_Update+0xb6>
  52:	f9b4 09e8 	ldrsh.w	r0, [r4, #2536]	; 0x9e8
  56:	2804      	cmp	r0, #4
  58:	da04      	bge.n	64 <Avg_Hr_In_Static_Update+0x64>
  5a:	4628      	mov	r0, r5
  5c:	f7ff fffe 	bl	0 <Valid_1ch_Check>
  60:	2801      	cmp	r0, #1
  62:	d128      	bne.n	b6 <Avg_Hr_In_Static_Update+0xb6>
  64:	f8b4 099e 	ldrh.w	r0, [r4, #2462]	; 0x99e
  68:	e023      	b.n	b2 <Avg_Hr_In_Static_Update+0xb2>
  6a:	f894 0b51 	ldrb.w	r0, [r4, #2897]	; 0xb51
  6e:	2801      	cmp	r0, #1
  70:	d121      	bne.n	b6 <Avg_Hr_In_Static_Update+0xb6>
  72:	f894 0bc0 	ldrb.w	r0, [r4, #3008]	; 0xbc0
  76:	2801      	cmp	r0, #1
  78:	d11d      	bne.n	b6 <Avg_Hr_In_Static_Update+0xb6>
  7a:	2946      	cmp	r1, #70	; 0x46
  7c:	dd1b      	ble.n	b6 <Avg_Hr_In_Static_Update+0xb6>
  7e:	f9b4 09e6 	ldrsh.w	r0, [r4, #2534]	; 0x9e6
  82:	2800      	cmp	r0, #0
  84:	dd17      	ble.n	b6 <Avg_Hr_In_Static_Update+0xb6>
  86:	f9b4 09e8 	ldrsh.w	r0, [r4, #2536]	; 0x9e8
  8a:	2804      	cmp	r0, #4
  8c:	da04      	bge.n	98 <Avg_Hr_In_Static_Update+0x98>
  8e:	4628      	mov	r0, r5
  90:	f7ff fffe 	bl	0 <Valid_1ch_Check>
  94:	2801      	cmp	r0, #1
  96:	d10e      	bne.n	b6 <Avg_Hr_In_Static_Update+0xb6>
  98:	f9b4 099e 	ldrsh.w	r0, [r4, #2462]	; 0x99e
  9c:	f9b4 1b4c 	ldrsh.w	r1, [r4, #2892]	; 0xb4c
  a0:	4288      	cmp	r0, r1
  a2:	da08      	bge.n	b6 <Avg_Hr_In_Static_Update+0xb6>
  a4:	390a      	subs	r1, #10
  a6:	4288      	cmp	r0, r1
  a8:	dd05      	ble.n	b6 <Avg_Hr_In_Static_Update+0xb6>
  aa:	f9b5 104e 	ldrsh.w	r1, [r5, #78]	; 0x4e
  ae:	4288      	cmp	r0, r1
  b0:	dd01      	ble.n	b6 <Avg_Hr_In_Static_Update+0xb6>
  b2:	f8a4 0b4c 	strh.w	r0, [r4, #2892]	; 0xb4c
  b6:	bd70      	pop	{r4, r5, r6, pc}

Disassembly of section i.Cal_Avg_Hr_In_Static:

00000000 <Cal_Avg_Hr_In_Static>:
   0:	f500 5000 	add.w	r0, r0, #8192	; 0x2000
   4:	f890 1b11 	ldrb.w	r1, [r0, #2833]	; 0xb11
   8:	2901      	cmp	r1, #1
   a:	d11a      	bne.n	42 <Cal_Avg_Hr_In_Static+0x42>
   c:	f890 1b50 	ldrb.w	r1, [r0, #2896]	; 0xb50
  10:	2900      	cmp	r1, #0
  12:	d116      	bne.n	42 <Cal_Avg_Hr_In_Static+0x42>
  14:	f8b0 1b4c 	ldrh.w	r1, [r0, #2892]	; 0xb4c
  18:	f8b0 2b12 	ldrh.w	r2, [r0, #2834]	; 0xb12
  1c:	4411      	add	r1, r2
  1e:	b20a      	sxth	r2, r1
  20:	f8a0 2b4c 	strh.w	r2, [r0, #2892]	; 0xb4c
  24:	f8b0 1b4e 	ldrh.w	r1, [r0, #2894]	; 0xb4e
  28:	1c49      	adds	r1, r1, #1
  2a:	b209      	sxth	r1, r1
  2c:	f8a0 1b4e 	strh.w	r1, [r0, #2894]	; 0xb4e
  30:	290a      	cmp	r1, #10
  32:	d106      	bne.n	42 <Cal_Avg_Hr_In_Static+0x42>
  34:	fb92 f1f1 	sdiv	r1, r2, r1
  38:	f8a0 1b4c 	strh.w	r1, [r0, #2892]	; 0xb4c
  3c:	2101      	movs	r1, #1
  3e:	f880 1b50 	strb.w	r1, [r0, #2896]	; 0xb50
  42:	4770      	bx	lr

Disassembly of section i.Cal_Hr_Daily:

00000000 <Cal_Hr_Daily>:
   0:	e92d 5ff0 	stmdb	sp!, {r4, r5, r6, r7, r8, r9, sl, fp, ip, lr}
   4:	f500 5400 	add.w	r4, r0, #8192	; 0x2000
   8:	ed2d 8b02 	vpush	{d8}
   c:	4605      	mov	r5, r0
   e:	f894 0f19 	ldrb.w	r0, [r4, #3865]	; 0xf19
  12:	2700      	movs	r7, #0
  14:	2637      	movs	r6, #55	; 0x37
  16:	f04f 0b55 	mov.w	fp, #85	; 0x55
  1a:	2802      	cmp	r0, #2
  1c:	d302      	bcc.n	24 <Cal_Hr_Daily+0x24>
  1e:	2000      	movs	r0, #0
  20:	f884 0f19 	strb.w	r0, [r4, #3865]	; 0xf19
  24:	f894 0b50 	ldrb.w	r0, [r4, #2896]	; 0xb50
  28:	2801      	cmp	r0, #1
  2a:	d120      	bne.n	6e <Cal_Hr_Daily+0x6e>
  2c:	f9b4 0b4c 	ldrsh.w	r0, [r4, #2892]	; 0xb4c
  30:	f9b5 1052 	ldrsh.w	r1, [r5, #82]	; 0x52
  34:	1842      	adds	r2, r0, r1
  36:	fa0f fb82 	sxth.w	fp, r2
  3a:	f9b5 2050 	ldrsh.w	r2, [r5, #80]	; 0x50
  3e:	1a83      	subs	r3, r0, r2
  40:	b21e      	sxth	r6, r3
  42:	f9b5 304e 	ldrsh.w	r3, [r5, #78]	; 0x4e
  46:	4298      	cmp	r0, r3
  48:	da05      	bge.n	56 <Cal_Hr_Daily+0x56>
  4a:	f8b5 004c 	ldrh.w	r0, [r5, #76]	; 0x4c
  4e:	1a80      	subs	r0, r0, r2
  50:	fa0f fb80 	sxth.w	fp, r0
  54:	e005      	b.n	62 <Cal_Hr_Daily+0x62>
  56:	f9b5 204c 	ldrsh.w	r2, [r5, #76]	; 0x4c
  5a:	4290      	cmp	r0, r2
  5c:	db01      	blt.n	62 <Cal_Hr_Daily+0x62>
  5e:	1a50      	subs	r0, r2, r1
  60:	b206      	sxth	r6, r0
  62:	f9b5 0090 	ldrsh.w	r0, [r5, #144]	; 0x90
  66:	1cc0      	adds	r0, r0, #3
  68:	42b0      	cmp	r0, r6
  6a:	dd00      	ble.n	6e <Cal_Hr_Daily+0x6e>
  6c:	b206      	sxth	r6, r0
  6e:	f894 0951 	ldrb.w	r0, [r4, #2385]	; 0x951
  72:	2100      	movs	r1, #0
  74:	eeb6 0a00 	vmov.f32	s0, #96	; 0x3f000000  0.5
  78:	b340      	cbz	r0, cc <Cal_Hr_Daily+0xcc>
  7a:	f894 2b51 	ldrb.w	r2, [r4, #2897]	; 0xb51
  7e:	f505 5a30 	add.w	sl, r5, #11264	; 0x2c00
  82:	2a01      	cmp	r2, #1
  84:	d070      	beq.n	168 <Cal_Hr_Daily+0x168>
  86:	2a00      	cmp	r2, #0
  88:	d16f      	bne.n	16a <Cal_Hr_Daily+0x16a>
  8a:	f894 1b52 	ldrb.w	r1, [r4, #2898]	; 0xb52
  8e:	b141      	cbz	r1, a2 <Cal_Hr_Daily+0xa2>
  90:	f8d5 20b0 	ldr.w	r2, [r5, #176]	; 0xb0
  94:	f8d4 187c 	ldr.w	r1, [r4, #2172]	; 0x87c
  98:	eb02 0242 	add.w	r2, r2, r2, lsl #1
  9c:	ebb1 0f82 	cmp.w	r1, r2, lsl #2
  a0:	da63      	bge.n	16a <Cal_Hr_Daily+0x16a>
  a2:	2801      	cmp	r0, #1
  a4:	d161      	bne.n	16a <Cal_Hr_Daily+0x16a>
  a6:	f8b5 00bc 	ldrh.w	r0, [r5, #188]	; 0xbc
  aa:	2801      	cmp	r0, #1
  ac:	d07d      	beq.n	1aa <Cal_Hr_Daily+0x1aa>
  ae:	edda 0aab 	vldr	s1, [sl, #684]	; 0x2ac
  b2:	ed9a 1aac 	vldr	s2, [sl, #688]	; 0x2b0
  b6:	ee70 0a81 	vadd.f32	s1, s1, s2
  ba:	ee20 8a80 	vmul.f32	s16, s1, s0
  be:	bf00      	nop
  c0:	f9b4 09e6 	ldrsh.w	r0, [r4, #2534]	; 0x9e6
  c4:	2800      	cmp	r0, #0
  c6:	dd50      	ble.n	16a <Cal_Hr_Daily+0x16a>
  c8:	2700      	movs	r7, #0
  ca:	e297      	b.n	5fc <Cal_Hr_Daily+0x5fc>
  cc:	f9b4 39e6 	ldrsh.w	r3, [r4, #2534]	; 0x9e6
  d0:	2b00      	cmp	r3, #0
  d2:	dd4a      	ble.n	16a <Cal_Hr_Daily+0x16a>
  d4:	2000      	movs	r0, #0
  d6:	e013      	b.n	100 <Cal_Hr_Daily+0x100>
  d8:	eb05 0240 	add.w	r2, r5, r0, lsl #1
  dc:	f502 5200 	add.w	r2, r2, #8192	; 0x2000
  e0:	f9b2 c9e8 	ldrsh.w	ip, [r2, #2536]	; 0x9e8
  e4:	f1bc 0f03 	cmp.w	ip, #3
  e8:	db08      	blt.n	fc <Cal_Hr_Daily+0xfc>
  ea:	f9b2 299e 	ldrsh.w	r2, [r2, #2462]	; 0x99e
  ee:	42b2      	cmp	r2, r6
  f0:	dd04      	ble.n	fc <Cal_Hr_Daily+0xfc>
  f2:	455a      	cmp	r2, fp
  f4:	da02      	bge.n	fc <Cal_Hr_Daily+0xfc>
  f6:	4607      	mov	r7, r0
  f8:	2101      	movs	r1, #1
  fa:	e003      	b.n	104 <Cal_Hr_Daily+0x104>
  fc:	1c40      	adds	r0, r0, #1
  fe:	b200      	sxth	r0, r0
 100:	4283      	cmp	r3, r0
 102:	dce9      	bgt.n	d8 <Cal_Hr_Daily+0xd8>
 104:	f9b4 0b4c 	ldrsh.w	r0, [r4, #2892]	; 0xb4c
 108:	f9b5 204c 	ldrsh.w	r2, [r5, #76]	; 0x4c
 10c:	4290      	cmp	r0, r2
 10e:	da36      	bge.n	17e <Cal_Hr_Daily+0x17e>
 110:	b349      	cbz	r1, 166 <Cal_Hr_Daily+0x166>
 112:	2100      	movs	r1, #0
 114:	460b      	mov	r3, r1
 116:	f9b5 90bc 	ldrsh.w	r9, [r5, #188]	; 0xbc
 11a:	e02e      	b.n	17a <Cal_Hr_Daily+0x17a>
 11c:	ebc3 00c3 	rsb	r0, r3, r3, lsl #3
 120:	ebc0 2003 	rsb	r0, r0, r3, lsl #8
 124:	f641 16fe 	movw	r6, #6654	; 0x19fe
 128:	eb05 0c80 	add.w	ip, r5, r0, lsl #2
 12c:	2200      	movs	r2, #0
 12e:	f936 600c 	ldrsh.w	r6, [r6, ip]
 132:	e01d      	b.n	170 <Cal_Hr_Daily+0x170>
 134:	eb0c 0042 	add.w	r0, ip, r2, lsl #1
 138:	f641 18f8 	movw	r8, #6648	; 0x19f8
 13c:	f930 8008 	ldrsh.w	r8, [r0, r8]
 140:	eb05 0047 	add.w	r0, r5, r7, lsl #1
 144:	f642 1a9e 	movw	sl, #10654	; 0x299e
 148:	f930 a00a 	ldrsh.w	sl, [r0, sl]
 14c:	eb08 78d8 	add.w	r8, r8, r8, lsr #31
 150:	ebaa 0068 	sub.w	r0, sl, r8, asr #1
 154:	2800      	cmp	r0, #0
 156:	d501      	bpl.n	15c <Cal_Hr_Daily+0x15c>
 158:	ebca 0068 	rsb	r0, sl, r8, asr #1
 15c:	f9b5 8010 	ldrsh.w	r8, [r5, #16]
 160:	4540      	cmp	r0, r8
 162:	da03      	bge.n	16c <Cal_Hr_Daily+0x16c>
 164:	2101      	movs	r1, #1
 166:	e00a      	b.n	17e <Cal_Hr_Daily+0x17e>
 168:	e063      	b.n	232 <Cal_Hr_Daily+0x232>
 16a:	e08f      	b.n	28c <Cal_Hr_Daily+0x28c>
 16c:	1c52      	adds	r2, r2, #1
 16e:	b212      	sxth	r2, r2
 170:	4296      	cmp	r6, r2
 172:	dcdf      	bgt.n	134 <Cal_Hr_Daily+0x134>
 174:	b919      	cbnz	r1, 17e <Cal_Hr_Daily+0x17e>
 176:	1c5b      	adds	r3, r3, #1
 178:	b21b      	sxth	r3, r3
 17a:	4599      	cmp	r9, r3
 17c:	dcce      	bgt.n	11c <Cal_Hr_Daily+0x11c>
 17e:	f895 00ca 	ldrb.w	r0, [r5, #202]	; 0xca
 182:	2801      	cmp	r0, #1
 184:	d001      	beq.n	18a <Cal_Hr_Daily+0x18a>
 186:	eeb7 0a00 	vmov.f32	s0, #112	; 0x3f800000  1.0
 18a:	2900      	cmp	r1, #0
 18c:	d07e      	beq.n	28c <Cal_Hr_Daily+0x28c>
 18e:	f9b4 6b14 	ldrsh.w	r6, [r4, #2836]	; 0xb14
 192:	eb05 0147 	add.w	r1, r5, r7, lsl #1
 196:	eb06 0246 	add.w	r2, r6, r6, lsl #1
 19a:	f501 5100 	add.w	r1, r1, #8192	; 0x2000
 19e:	17d3      	asrs	r3, r2, #31
 1a0:	f9b1 099e 	ldrsh.w	r0, [r1, #2462]	; 0x99e
 1a4:	eb02 7293 	add.w	r2, r2, r3, lsr #30
 1a8:	e000      	b.n	1ac <Cal_Hr_Daily+0x1ac>
 1aa:	e1ca      	b.n	542 <Cal_Hr_Daily+0x542>
 1ac:	ebb0 0fa2 	cmp.w	r0, r2, asr #2
 1b0:	dd6c      	ble.n	28c <Cal_Hr_Daily+0x28c>
 1b2:	f505 5580 	add.w	r5, r5, #4096	; 0x1000
 1b6:	f8d5 3dc0 	ldr.w	r3, [r5, #3520]	; 0xdc0
 1ba:	f853 2020 	ldr.w	r2, [r3, r0, lsl #2]
 1be:	f853 5026 	ldr.w	r5, [r3, r6, lsl #2]
 1c2:	ee00 2a90 	vmov	s1, r2
 1c6:	eef8 0ae0 	vcvt.f32.s32	s1, s1
 1ca:	ee20 1a80 	vmul.f32	s2, s1, s0
 1ce:	ee00 5a90 	vmov	s1, r5
 1d2:	eef8 0ae0 	vcvt.f32.s32	s1, s1
 1d6:	eeb4 1ae0 	vcmpe.f32	s2, s1
 1da:	eef1 fa10 	vmrs	APSR_nzcv, fpscr
 1de:	dd55      	ble.n	28c <Cal_Hr_Daily+0x28c>
 1e0:	ee00 2a90 	vmov	s1, r2
 1e4:	eb00 70d0 	add.w	r0, r0, r0, lsr #31
 1e8:	1040      	asrs	r0, r0, #1
 1ea:	eef8 0ae0 	vcvt.f32.s32	s1, s1
 1ee:	eb03 0080 	add.w	r0, r3, r0, lsl #2
 1f2:	ee60 0a80 	vmul.f32	s1, s1, s0
 1f6:	ed90 0a00 	vldr	s0, [r0]
 1fa:	eeb8 0ac0 	vcvt.f32.s32	s0, s0
 1fe:	eef4 0ac0 	vcmpe.f32	s1, s0
 202:	eef1 fa10 	vmrs	APSR_nzcv, fpscr
 206:	dd41      	ble.n	28c <Cal_Hr_Daily+0x28c>
 208:	f894 0f19 	ldrb.w	r0, [r4, #3865]	; 0xf19
 20c:	1c40      	adds	r0, r0, #1
 20e:	b2c0      	uxtb	r0, r0
 210:	f884 0f19 	strb.w	r0, [r4, #3865]	; 0xf19
 214:	f9b1 299e 	ldrsh.w	r2, [r1, #2462]	; 0x99e
 218:	f9b4 3b12 	ldrsh.w	r3, [r4, #2834]	; 0xb12
 21c:	429a      	cmp	r2, r3
 21e:	da03      	bge.n	228 <Cal_Hr_Daily+0x228>
 220:	2002      	movs	r0, #2
 222:	f884 0f19 	strb.w	r0, [r4, #3865]	; 0xf19
 226:	e001      	b.n	22c <Cal_Hr_Daily+0x22c>
 228:	2802      	cmp	r0, #2
 22a:	d32f      	bcc.n	28c <Cal_Hr_Daily+0x28c>
 22c:	f8b1 099e 	ldrh.w	r0, [r1, #2462]	; 0x99e
 230:	e184      	b.n	53c <Cal_Hr_Daily+0x53c>
 232:	2801      	cmp	r0, #1
 234:	d12a      	bne.n	28c <Cal_Hr_Daily+0x28c>
 236:	f9b4 09e6 	ldrsh.w	r0, [r4, #2534]	; 0x9e6
 23a:	2800      	cmp	r0, #0
 23c:	dd26      	ble.n	28c <Cal_Hr_Daily+0x28c>
 23e:	f9b4 0b4c 	ldrsh.w	r0, [r4, #2892]	; 0xb4c
 242:	f9b5 104c 	ldrsh.w	r1, [r5, #76]	; 0x4c
 246:	f04f 0700 	mov.w	r7, #0
 24a:	4288      	cmp	r0, r1
 24c:	db60      	blt.n	310 <Cal_Hr_Daily+0x310>
 24e:	e143      	b.n	4d8 <Cal_Hr_Daily+0x4d8>
 250:	eb05 0047 	add.w	r0, r5, r7, lsl #1
 254:	f500 5900 	add.w	r9, r0, #8192	; 0x2000
 258:	f9b9 09e8 	ldrsh.w	r0, [r9, #2536]	; 0x9e8
 25c:	2803      	cmp	r0, #3
 25e:	da0d      	bge.n	27c <Cal_Hr_Daily+0x27c>
 260:	4628      	mov	r0, r5
 262:	f7ff fffe 	bl	0 <Valid_1ch_Check>
 266:	2801      	cmp	r0, #1
 268:	d150      	bne.n	30c <Cal_Hr_Daily+0x30c>
 26a:	ed9a 0aab 	vldr	s0, [sl, #684]	; 0x2ac
 26e:	edd5 0a0d 	vldr	s1, [r5, #52]	; 0x34
 272:	eeb4 0ae0 	vcmpe.f32	s0, s1
 276:	eef1 fa10 	vmrs	APSR_nzcv, fpscr
 27a:	dd47      	ble.n	30c <Cal_Hr_Daily+0x30c>
 27c:	f9b9 099e 	ldrsh.w	r0, [r9, #2462]	; 0x99e
 280:	42b0      	cmp	r0, r6
 282:	dd38      	ble.n	2f6 <Cal_Hr_Daily+0x2f6>
 284:	4558      	cmp	r0, fp
 286:	da36      	bge.n	2f6 <Cal_Hr_Daily+0x2f6>
 288:	2000      	movs	r0, #0
 28a:	e02b      	b.n	2e4 <Cal_Hr_Daily+0x2e4>
 28c:	e0eb      	b.n	466 <Cal_Hr_Daily+0x466>
 28e:	bf00      	nop
 290:	ebc8 01c8 	rsb	r1, r8, r8, lsl #3
 294:	ebc1 2008 	rsb	r0, r1, r8, lsl #8
 298:	eb05 0080 	add.w	r0, r5, r0, lsl #2
 29c:	f500 5080 	add.w	r0, r0, #4096	; 0x1000
 2a0:	f9b9 299e 	ldrsh.w	r2, [r9, #2462]	; 0x99e
 2a4:	f8d0 1dc0 	ldr.w	r1, [r0, #3520]	; 0xdc0
 2a8:	2300      	movs	r3, #0
 2aa:	4628      	mov	r0, r5
 2ac:	f7ff fffe 	bl	0 <Cal_Hr_Daily>
 2b0:	ee10 0a10 	vmov	r0, s0
 2b4:	49f2      	ldr	r1, [pc, #968]	; (680 <Cal_Hr_Daily+0x680>)
 2b6:	4288      	cmp	r0, r1
 2b8:	dd11      	ble.n	2de <Cal_Hr_Daily+0x2de>
 2ba:	f9b4 0b1e 	ldrsh.w	r0, [r4, #2846]	; 0xb1e
 2be:	2828      	cmp	r0, #40	; 0x28
 2c0:	da07      	bge.n	2d2 <Cal_Hr_Daily+0x2d2>
 2c2:	f8d4 1b88 	ldr.w	r1, [r4, #2952]	; 0xb88
 2c6:	f8d4 0884 	ldr.w	r0, [r4, #2180]	; 0x884
 2ca:	1a40      	subs	r0, r0, r1
 2cc:	280a      	cmp	r0, #10
 2ce:	dc0e      	bgt.n	2ee <Cal_Hr_Daily+0x2ee>
 2d0:	e005      	b.n	2de <Cal_Hr_Daily+0x2de>
 2d2:	19e8      	adds	r0, r5, r7
 2d4:	f500 5000 	add.w	r0, r0, #8192	; 0x2000
 2d8:	f890 09ce 	ldrb.w	r0, [r0, #2510]	; 0x9ce
 2dc:	b138      	cbz	r0, 2ee <Cal_Hr_Daily+0x2ee>
 2de:	f108 0001 	add.w	r0, r8, #1
 2e2:	b200      	sxth	r0, r0
 2e4:	f9b5 10bc 	ldrsh.w	r1, [r5, #188]	; 0xbc
 2e8:	4680      	mov	r8, r0
 2ea:	4541      	cmp	r1, r8
 2ec:	dcd0      	bgt.n	290 <Cal_Hr_Daily+0x290>
 2ee:	f9b5 00bc 	ldrsh.w	r0, [r5, #188]	; 0xbc
 2f2:	4540      	cmp	r0, r8
 2f4:	d111      	bne.n	31a <Cal_Hr_Daily+0x31a>
 2f6:	f8b9 09e8 	ldrh.w	r0, [r9, #2536]	; 0x9e8
 2fa:	2804      	cmp	r0, #4
 2fc:	d106      	bne.n	30c <Cal_Hr_Daily+0x30c>
 2fe:	f9b9 099e 	ldrsh.w	r0, [r9, #2462]	; 0x99e
 302:	1f71      	subs	r1, r6, #5
 304:	4288      	cmp	r0, r1
 306:	dd01      	ble.n	30c <Cal_Hr_Daily+0x30c>
 308:	4558      	cmp	r0, fp
 30a:	db06      	blt.n	31a <Cal_Hr_Daily+0x31a>
 30c:	1c7f      	adds	r7, r7, #1
 30e:	b23f      	sxth	r7, r7
 310:	f9b4 09e6 	ldrsh.w	r0, [r4, #2534]	; 0x9e6
 314:	42b8      	cmp	r0, r7
 316:	dc9b      	bgt.n	250 <Cal_Hr_Daily+0x250>
 318:	e02b      	b.n	372 <Cal_Hr_Daily+0x372>
 31a:	eb05 0047 	add.w	r0, r5, r7, lsl #1
 31e:	f642 119e 	movw	r1, #10654	; 0x299e
 322:	5e41      	ldrsh	r1, [r0, r1]
 324:	f9b5 0090 	ldrsh.w	r0, [r5, #144]	; 0x90
 328:	4281      	cmp	r1, r0
 32a:	dd22      	ble.n	372 <Cal_Hr_Daily+0x372>
 32c:	f9b4 0b14 	ldrsh.w	r0, [r4, #2836]	; 0xb14
 330:	eb00 0040 	add.w	r0, r0, r0, lsl #1
 334:	17c2      	asrs	r2, r0, #31
 336:	eb00 7092 	add.w	r0, r0, r2, lsr #30
 33a:	ebb1 0fa0 	cmp.w	r1, r0, asr #2
 33e:	dd18      	ble.n	372 <Cal_Hr_Daily+0x372>
 340:	f9b4 0f5c 	ldrsh.w	r0, [r4, #3932]	; 0xf5c
 344:	2802      	cmp	r0, #2
 346:	dc14      	bgt.n	372 <Cal_Hr_Daily+0x372>
 348:	f894 0f19 	ldrb.w	r0, [r4, #3865]	; 0xf19
 34c:	1c40      	adds	r0, r0, #1
 34e:	b2c0      	uxtb	r0, r0
 350:	f884 0f19 	strb.w	r0, [r4, #3865]	; 0xf19
 354:	f9b9 199e 	ldrsh.w	r1, [r9, #2462]	; 0x99e
 358:	f9b4 2b12 	ldrsh.w	r2, [r4, #2834]	; 0xb12
 35c:	4291      	cmp	r1, r2
 35e:	da03      	bge.n	368 <Cal_Hr_Daily+0x368>
 360:	2002      	movs	r0, #2
 362:	f884 0f19 	strb.w	r0, [r4, #3865]	; 0xf19
 366:	e001      	b.n	36c <Cal_Hr_Daily+0x36c>
 368:	2802      	cmp	r0, #2
 36a:	d37c      	bcc.n	466 <Cal_Hr_Daily+0x466>
 36c:	f8b9 099e 	ldrh.w	r0, [r9, #2462]	; 0x99e
 370:	e0e4      	b.n	53c <Cal_Hr_Daily+0x53c>
 372:	f9b4 a9e8 	ldrsh.w	sl, [r4, #2536]	; 0x9e8
 376:	2300      	movs	r3, #0
 378:	f1ba 0f02 	cmp.w	sl, #2
 37c:	d12f      	bne.n	3de <Cal_Hr_Daily+0x3de>
 37e:	2200      	movs	r2, #0
 380:	f9b5 c0bc 	ldrsh.w	ip, [r5, #188]	; 0xbc
 384:	e029      	b.n	3da <Cal_Hr_Daily+0x3da>
 386:	ebc2 01c2 	rsb	r1, r2, r2, lsl #3
 38a:	ebc1 2102 	rsb	r1, r1, r2, lsl #8
 38e:	f641 16fe 	movw	r6, #6654	; 0x19fe
 392:	eb05 0181 	add.w	r1, r5, r1, lsl #2
 396:	2000      	movs	r0, #0
 398:	5e77      	ldrsh	r7, [r6, r1]
 39a:	e01a      	b.n	3d2 <Cal_Hr_Daily+0x3d2>
 39c:	eb01 0640 	add.w	r6, r1, r0, lsl #1
 3a0:	f641 18f8 	movw	r8, #6648	; 0x19f8
 3a4:	f936 8008 	ldrsh.w	r8, [r6, r8]
 3a8:	f9b4 999e 	ldrsh.w	r9, [r4, #2462]	; 0x99e
 3ac:	eb08 78d8 	add.w	r8, r8, r8, lsr #31
 3b0:	ebc9 0668 	rsb	r6, r9, r8, asr #1
 3b4:	2e00      	cmp	r6, #0
 3b6:	d501      	bpl.n	3bc <Cal_Hr_Daily+0x3bc>
 3b8:	eba9 0668 	sub.w	r6, r9, r8, asr #1
 3bc:	f9b5 8010 	ldrsh.w	r8, [r5, #16]
 3c0:	b236      	sxth	r6, r6
 3c2:	f108 0802 	add.w	r8, r8, #2
 3c6:	45b0      	cmp	r8, r6
 3c8:	dd01      	ble.n	3ce <Cal_Hr_Daily+0x3ce>
 3ca:	1c5b      	adds	r3, r3, #1
 3cc:	b21b      	sxth	r3, r3
 3ce:	1c40      	adds	r0, r0, #1
 3d0:	b200      	sxth	r0, r0
 3d2:	4287      	cmp	r7, r0
 3d4:	dce2      	bgt.n	39c <Cal_Hr_Daily+0x39c>
 3d6:	1c52      	adds	r2, r2, #1
 3d8:	b212      	sxth	r2, r2
 3da:	4594      	cmp	ip, r2
 3dc:	dcd3      	bgt.n	386 <Cal_Hr_Daily+0x386>
 3de:	f8d4 1b88 	ldr.w	r1, [r4, #2952]	; 0xb88
 3e2:	f8d4 0884 	ldr.w	r0, [r4, #2180]	; 0x884
 3e6:	311e      	adds	r1, #30
 3e8:	4288      	cmp	r0, r1
 3ea:	dd49      	ble.n	480 <Cal_Hr_Daily+0x480>
 3ec:	f1ba 0f03 	cmp.w	sl, #3
 3f0:	da46      	bge.n	480 <Cal_Hr_Daily+0x480>
 3f2:	f9b4 1b1e 	ldrsh.w	r1, [r4, #2846]	; 0xb1e
 3f6:	2905      	cmp	r1, #5
 3f8:	da42      	bge.n	480 <Cal_Hr_Daily+0x480>
 3fa:	2b00      	cmp	r3, #0
 3fc:	d140      	bne.n	480 <Cal_Hr_Daily+0x480>
 3fe:	f8d4 1b8c 	ldr.w	r1, [r4, #2956]	; 0xb8c
 402:	310a      	adds	r1, #10
 404:	4288      	cmp	r0, r1
 406:	dd3b      	ble.n	480 <Cal_Hr_Daily+0x480>
 408:	f9b4 1b4c 	ldrsh.w	r1, [r4, #2892]	; 0xb4c
 40c:	f9b4 0b12 	ldrsh.w	r0, [r4, #2834]	; 0xb12
 410:	f101 020a 	add.w	r2, r1, #10
 414:	4290      	cmp	r0, r2
 416:	dd33      	ble.n	480 <Cal_Hr_Daily+0x480>
 418:	f9b5 204c 	ldrsh.w	r2, [r5, #76]	; 0x4c
 41c:	4290      	cmp	r0, r2
 41e:	da2f      	bge.n	480 <Cal_Hr_Daily+0x480>
 420:	1a42      	subs	r2, r0, r1
 422:	d500      	bpl.n	426 <Cal_Hr_Daily+0x426>
 424:	1a0a      	subs	r2, r1, r0
 426:	b217      	sxth	r7, r2
 428:	2200      	movs	r2, #0
 42a:	f9b5 90bc 	ldrsh.w	r9, [r5, #188]	; 0xbc
 42e:	e025      	b.n	47c <Cal_Hr_Daily+0x47c>
 430:	ebc2 03c2 	rsb	r3, r2, r2, lsl #3
 434:	ebc3 2302 	rsb	r3, r3, r2, lsl #8
 438:	eb05 0683 	add.w	r6, r5, r3, lsl #2
 43c:	2000      	movs	r0, #0
 43e:	f506 5380 	add.w	r3, r6, #4096	; 0x1000
 442:	e015      	b.n	470 <Cal_Hr_Daily+0x470>
 444:	eb06 0c40 	add.w	ip, r6, r0, lsl #1
 448:	f641 18f8 	movw	r8, #6648	; 0x19f8
 44c:	f93c 8008 	ldrsh.w	r8, [ip, r8]
 450:	ebb8 0c01 	subs.w	ip, r8, r1
 454:	d501      	bpl.n	45a <Cal_Hr_Daily+0x45a>
 456:	eba1 0c08 	sub.w	ip, r1, r8
 45a:	fa0f fc8c 	sxth.w	ip, ip
 45e:	45bc      	cmp	ip, r7
 460:	da04      	bge.n	46c <Cal_Hr_Daily+0x46c>
 462:	4667      	mov	r7, ip
 464:	e000      	b.n	468 <Cal_Hr_Daily+0x468>
 466:	e00b      	b.n	480 <Cal_Hr_Daily+0x480>
 468:	f8a4 8b12 	strh.w	r8, [r4, #2834]	; 0xb12
 46c:	1c40      	adds	r0, r0, #1
 46e:	b200      	sxth	r0, r0
 470:	f9b3 c9fe 	ldrsh.w	ip, [r3, #2558]	; 0x9fe
 474:	4584      	cmp	ip, r0
 476:	dce5      	bgt.n	444 <Cal_Hr_Daily+0x444>
 478:	1c52      	adds	r2, r2, #1
 47a:	b212      	sxth	r2, r2
 47c:	4591      	cmp	r9, r2
 47e:	dcd7      	bgt.n	430 <Cal_Hr_Daily+0x430>
 480:	ecbd 8b02 	vpop	{d8}
 484:	e8bd 9ff0 	ldmia.w	sp!, {r4, r5, r6, r7, r8, r9, sl, fp, ip, pc}
 488:	eb05 0047 	add.w	r0, r5, r7, lsl #1
 48c:	f500 5800 	add.w	r8, r0, #8192	; 0x2000
 490:	f9b8 09e8 	ldrsh.w	r0, [r8, #2536]	; 0x9e8
 494:	2803      	cmp	r0, #3
 496:	da0d      	bge.n	4b4 <Cal_Hr_Daily+0x4b4>
 498:	4628      	mov	r0, r5
 49a:	f7ff fffe 	bl	0 <Valid_1ch_Check>
 49e:	2801      	cmp	r0, #1
 4a0:	d118      	bne.n	4d4 <Cal_Hr_Daily+0x4d4>
 4a2:	ed9a 0aab 	vldr	s0, [sl, #684]	; 0x2ac
 4a6:	edd5 0a0d 	vldr	s1, [r5, #52]	; 0x34
 4aa:	eeb4 0ae0 	vcmpe.f32	s0, s1
 4ae:	eef1 fa10 	vmrs	APSR_nzcv, fpscr
 4b2:	dd0f      	ble.n	4d4 <Cal_Hr_Daily+0x4d4>
 4b4:	f9b8 099e 	ldrsh.w	r0, [r8, #2462]	; 0x99e
 4b8:	42b0      	cmp	r0, r6
 4ba:	dd0b      	ble.n	4d4 <Cal_Hr_Daily+0x4d4>
 4bc:	4558      	cmp	r0, fp
 4be:	da09      	bge.n	4d4 <Cal_Hr_Daily+0x4d4>
 4c0:	f9b4 1b1e 	ldrsh.w	r1, [r4, #2846]	; 0xb1e
 4c4:	2928      	cmp	r1, #40	; 0x28
 4c6:	db0c      	blt.n	4e2 <Cal_Hr_Daily+0x4e2>
 4c8:	19e9      	adds	r1, r5, r7
 4ca:	f501 5100 	add.w	r1, r1, #8192	; 0x2000
 4ce:	f891 19ce 	ldrb.w	r1, [r1, #2510]	; 0x9ce
 4d2:	b131      	cbz	r1, 4e2 <Cal_Hr_Daily+0x4e2>
 4d4:	1c7f      	adds	r7, r7, #1
 4d6:	b23f      	sxth	r7, r7
 4d8:	f9b4 09e6 	ldrsh.w	r0, [r4, #2534]	; 0x9e6
 4dc:	42b8      	cmp	r0, r7
 4de:	dcd3      	bgt.n	488 <Cal_Hr_Daily+0x488>
 4e0:	e7ce      	b.n	480 <Cal_Hr_Daily+0x480>
 4e2:	eb05 0147 	add.w	r1, r5, r7, lsl #1
 4e6:	f501 5100 	add.w	r1, r1, #8192	; 0x2000
 4ea:	f9b5 2090 	ldrsh.w	r2, [r5, #144]	; 0x90
 4ee:	f9b1 199e 	ldrsh.w	r1, [r1, #2462]	; 0x99e
 4f2:	4291      	cmp	r1, r2
 4f4:	ddc4      	ble.n	480 <Cal_Hr_Daily+0x480>
 4f6:	f9b4 2b14 	ldrsh.w	r2, [r4, #2836]	; 0xb14
 4fa:	4241      	negs	r1, r0
 4fc:	eb12 0141 	adds.w	r1, r2, r1, lsl #1
 500:	d502      	bpl.n	508 <Cal_Hr_Daily+0x508>
 502:	ebc2 0340 	rsb	r3, r2, r0, lsl #1
 506:	e000      	b.n	50a <Cal_Hr_Daily+0x50a>
 508:	460b      	mov	r3, r1
 50a:	f9b5 5010 	ldrsh.w	r5, [r5, #16]
 50e:	1cad      	adds	r5, r5, #2
 510:	42ab      	cmp	r3, r5
 512:	da01      	bge.n	518 <Cal_Hr_Daily+0x518>
 514:	0040      	lsls	r0, r0, #1
 516:	e011      	b.n	53c <Cal_Hr_Daily+0x53c>
 518:	f894 3ed0 	ldrb.w	r3, [r4, #3792]	; 0xed0
 51c:	2b01      	cmp	r3, #1
 51e:	d10d      	bne.n	53c <Cal_Hr_Daily+0x53c>
 520:	f894 3b29 	ldrb.w	r3, [r4, #2857]	; 0xb29
 524:	2b01      	cmp	r3, #1
 526:	d109      	bne.n	53c <Cal_Hr_Daily+0x53c>
 528:	2900      	cmp	r1, #0
 52a:	da01      	bge.n	530 <Cal_Hr_Daily+0x530>
 52c:	ebc2 0140 	rsb	r1, r2, r0, lsl #1
 530:	1a13      	subs	r3, r2, r0
 532:	d500      	bpl.n	536 <Cal_Hr_Daily+0x536>
 534:	1a83      	subs	r3, r0, r2
 536:	4299      	cmp	r1, r3
 538:	dbec      	blt.n	514 <Cal_Hr_Daily+0x514>
 53a:	e7a1      	b.n	480 <Cal_Hr_Daily+0x480>
 53c:	f8a4 0b12 	strh.w	r0, [r4, #2834]	; 0xb12
 540:	e79e      	b.n	480 <Cal_Hr_Daily+0x480>
 542:	ed9a 8aab 	vldr	s16, [sl, #684]	; 0x2ac
 546:	e5bb      	b.n	c0 <Cal_Hr_Daily+0xc0>
 548:	eb05 0047 	add.w	r0, r5, r7, lsl #1
 54c:	f500 5800 	add.w	r8, r0, #8192	; 0x2000
 550:	f9b8 09e8 	ldrsh.w	r0, [r8, #2536]	; 0x9e8
 554:	2803      	cmp	r0, #3
 556:	da04      	bge.n	562 <Cal_Hr_Daily+0x562>
 558:	4628      	mov	r0, r5
 55a:	f7ff fffe 	bl	0 <Valid_1ch_Check>
 55e:	2801      	cmp	r0, #1
 560:	d14a      	bne.n	5f8 <Cal_Hr_Daily+0x5f8>
 562:	ed95 0a0d 	vldr	s0, [r5, #52]	; 0x34
 566:	eeb4 0ac8 	vcmpe.f32	s0, s16
 56a:	eef1 fa10 	vmrs	APSR_nzcv, fpscr
 56e:	d243      	bcs.n	5f8 <Cal_Hr_Daily+0x5f8>
 570:	f9b8 099e 	ldrsh.w	r0, [r8, #2462]	; 0x99e
 574:	42b0      	cmp	r0, r6
 576:	dd3f      	ble.n	5f8 <Cal_Hr_Daily+0x5f8>
 578:	4558      	cmp	r0, fp
 57a:	da3d      	bge.n	5f8 <Cal_Hr_Daily+0x5f8>
 57c:	19e9      	adds	r1, r5, r7
 57e:	f501 5100 	add.w	r1, r1, #8192	; 0x2000
 582:	f891 19ce 	ldrb.w	r1, [r1, #2510]	; 0x9ce
 586:	bbb1      	cbnz	r1, 5f6 <Cal_Hr_Daily+0x5f6>
 588:	f9b4 2b30 	ldrsh.w	r2, [r4, #2864]	; 0xb30
 58c:	ebc2 0140 	rsb	r1, r2, r0, lsl #1
 590:	2900      	cmp	r1, #0
 592:	d501      	bpl.n	598 <Cal_Hr_Daily+0x598>
 594:	eba2 0140 	sub.w	r1, r2, r0, lsl #1
 598:	f9b5 2016 	ldrsh.w	r2, [r5, #22]
 59c:	4291      	cmp	r1, r2
 59e:	dd2b      	ble.n	5f8 <Cal_Hr_Daily+0x5f8>
 5a0:	eb05 0147 	add.w	r1, r5, r7, lsl #1
 5a4:	f501 5100 	add.w	r1, r1, #8192	; 0x2000
 5a8:	f9b5 2090 	ldrsh.w	r2, [r5, #144]	; 0x90
 5ac:	f9b1 199e 	ldrsh.w	r1, [r1, #2462]	; 0x99e
 5b0:	4291      	cmp	r1, r2
 5b2:	dd95      	ble.n	4e0 <Cal_Hr_Daily+0x4e0>
 5b4:	f9b4 1b4c 	ldrsh.w	r1, [r4, #2892]	; 0xb4c
 5b8:	f9b5 204c 	ldrsh.w	r2, [r5, #76]	; 0x4c
 5bc:	4291      	cmp	r1, r2
 5be:	da4f      	bge.n	660 <Cal_Hr_Daily+0x660>
 5c0:	f9b4 1b12 	ldrsh.w	r1, [r4, #2834]	; 0xb12
 5c4:	eb01 72d1 	add.w	r2, r1, r1, lsr #31
 5c8:	ebc0 0162 	rsb	r1, r0, r2, asr #1
 5cc:	2900      	cmp	r1, #0
 5ce:	d501      	bpl.n	5d4 <Cal_Hr_Daily+0x5d4>
 5d0:	eba0 0162 	sub.w	r1, r0, r2, asr #1
 5d4:	f9b5 b010 	ldrsh.w	fp, [r5, #16]
 5d8:	f10b 0202 	add.w	r2, fp, #2
 5dc:	4291      	cmp	r1, r2
 5de:	ddac      	ble.n	53a <Cal_Hr_Daily+0x53a>
 5e0:	f8d4 1b88 	ldr.w	r1, [r4, #2952]	; 0xb88
 5e4:	2600      	movs	r6, #0
 5e6:	2900      	cmp	r1, #0
 5e8:	d0a8      	beq.n	53c <Cal_Hr_Daily+0x53c>
 5ea:	2200      	movs	r2, #0
 5ec:	f04f 0a03 	mov.w	sl, #3
 5f0:	f9b5 90bc 	ldrsh.w	r9, [r5, #188]	; 0xbc
 5f4:	e02f      	b.n	656 <Cal_Hr_Daily+0x656>
 5f6:	e7ff      	b.n	5f8 <Cal_Hr_Daily+0x5f8>
 5f8:	1c7f      	adds	r7, r7, #1
 5fa:	b23f      	sxth	r7, r7
 5fc:	f9b4 09e6 	ldrsh.w	r0, [r4, #2534]	; 0x9e6
 600:	42b8      	cmp	r0, r7
 602:	dca1      	bgt.n	548 <Cal_Hr_Daily+0x548>
 604:	e73c      	b.n	480 <Cal_Hr_Daily+0x480>
 606:	ebc2 03c2 	rsb	r3, r2, r2, lsl #3
 60a:	ebc3 2302 	rsb	r3, r3, r2, lsl #8
 60e:	f641 17fe 	movw	r7, #6654	; 0x19fe
 612:	eb05 0383 	add.w	r3, r5, r3, lsl #2
 616:	2100      	movs	r1, #0
 618:	f937 c003 	ldrsh.w	ip, [r7, r3]
 61c:	e015      	b.n	64a <Cal_Hr_Daily+0x64a>
 61e:	bf00      	nop
 620:	eb03 0741 	add.w	r7, r3, r1, lsl #1
 624:	f507 5780 	add.w	r7, r7, #4096	; 0x1000
 628:	f9b7 79f8 	ldrsh.w	r7, [r7, #2552]	; 0x9f8
 62c:	fb97 f8fa 	sdiv	r8, r7, sl
 630:	fb97 f7fa 	sdiv	r7, r7, sl
 634:	ebb0 0808 	subs.w	r8, r0, r8
 638:	d501      	bpl.n	63e <Cal_Hr_Daily+0x63e>
 63a:	1a3f      	subs	r7, r7, r0
 63c:	e000      	b.n	640 <Cal_Hr_Daily+0x640>
 63e:	1bc7      	subs	r7, r0, r7
 640:	455f      	cmp	r7, fp
 642:	da00      	bge.n	646 <Cal_Hr_Daily+0x646>
 644:	2601      	movs	r6, #1
 646:	1c49      	adds	r1, r1, #1
 648:	b209      	sxth	r1, r1
 64a:	458c      	cmp	ip, r1
 64c:	dce8      	bgt.n	620 <Cal_Hr_Daily+0x620>
 64e:	2e01      	cmp	r6, #1
 650:	d0d8      	beq.n	604 <Cal_Hr_Daily+0x604>
 652:	1c52      	adds	r2, r2, #1
 654:	b212      	sxth	r2, r2
 656:	4591      	cmp	r9, r2
 658:	dcd5      	bgt.n	606 <Cal_Hr_Daily+0x606>
 65a:	2e00      	cmp	r6, #0
 65c:	d0c4      	beq.n	5e8 <Cal_Hr_Daily+0x5e8>
 65e:	e70f      	b.n	480 <Cal_Hr_Daily+0x480>
 660:	f9b4 2b14 	ldrsh.w	r2, [r4, #2836]	; 0xb14
 664:	eb02 73d2 	add.w	r3, r2, r2, lsr #31
 668:	ebc0 0163 	rsb	r1, r0, r3, asr #1
 66c:	2900      	cmp	r1, #0
 66e:	d501      	bpl.n	674 <Cal_Hr_Daily+0x674>
 670:	eba0 0163 	sub.w	r1, r0, r3, asr #1
 674:	2904      	cmp	r1, #4
 676:	f6bf addb 	bge.w	230 <Cal_Hr_Daily+0x230>
 67a:	f8a4 2b12 	strh.w	r2, [r4, #2834]	; 0xb12
 67e:	e6ff      	b.n	480 <Cal_Hr_Daily+0x480>
 680:	40200000 	.word	0x40200000

Disassembly of section i.Cal_Partial_Spec_Std_Mean:

00000000 <Cal_Partial_Spec_Std_Mean>:
   0:	b570      	push	{r4, r5, r6, lr}
   2:	f500 5400 	add.w	r4, r0, #8192	; 0x2000
   6:	ed9f 0a1d 	vldr	s0, [pc, #116]	; 7c <Cal_Partial_Spec_Std_Mean+0x7c>
   a:	f894 5b11 	ldrb.w	r5, [r4, #2833]	; 0xb11
   e:	2d01      	cmp	r5, #1
  10:	d133      	bne.n	7a <Cal_Partial_Spec_Std_Mean+0x7a>
  12:	f894 4951 	ldrb.w	r4, [r4, #2385]	; 0x951
  16:	2c01      	cmp	r4, #1
  18:	d001      	beq.n	1e <Cal_Partial_Spec_Std_Mean+0x1e>
  1a:	2b01      	cmp	r3, #1
  1c:	d12d      	bne.n	7a <Cal_Partial_Spec_Std_Mean+0x7a>
  1e:	f1a2 0314 	sub.w	r3, r2, #20
  22:	b21d      	sxth	r5, r3
  24:	3328      	adds	r3, #40	; 0x28
  26:	b21c      	sxth	r4, r3
  28:	f9b0 3090 	ldrsh.w	r3, [r0, #144]	; 0x90
  2c:	3b0a      	subs	r3, #10
  2e:	42ab      	cmp	r3, r5
  30:	dd00      	ble.n	34 <Cal_Partial_Spec_Std_Mean+0x34>
  32:	b21d      	sxth	r5, r3
  34:	f9b0 0022 	ldrsh.w	r0, [r0, #34]	; 0x22
  38:	42a0      	cmp	r0, r4
  3a:	da00      	bge.n	3e <Cal_Partial_Spec_Std_Mean+0x3e>
  3c:	4604      	mov	r4, r0
  3e:	2000      	movs	r0, #0
  40:	462b      	mov	r3, r5
  42:	e004      	b.n	4e <Cal_Partial_Spec_Std_Mean+0x4e>
  44:	f851 6023 	ldr.w	r6, [r1, r3, lsl #2]
  48:	1c5b      	adds	r3, r3, #1
  4a:	4430      	add	r0, r6
  4c:	b21b      	sxth	r3, r3
  4e:	42a3      	cmp	r3, r4
  50:	ddf8      	ble.n	44 <Cal_Partial_Spec_Std_Mean+0x44>
  52:	1b63      	subs	r3, r4, r5
  54:	1c5b      	adds	r3, r3, #1
  56:	ee00 3a10 	vmov	s0, r3
  5a:	eeb8 1ac0 	vcvt.f32.s32	s2, s0
  5e:	ee00 0a10 	vmov	s0, r0
  62:	f851 0022 	ldr.w	r0, [r1, r2, lsl #2]
  66:	eeb8 0ac0 	vcvt.f32.s32	s0, s0
  6a:	eec0 0a01 	vdiv.f32	s1, s0, s2
  6e:	ee00 0a10 	vmov	s0, r0
  72:	eeb8 1ac0 	vcvt.f32.s32	s2, s0
  76:	ee81 0a20 	vdiv.f32	s0, s2, s1
  7a:	bd70      	pop	{r4, r5, r6, pc}
  7c:	00000000 	.word	0x00000000

Disassembly of section i.Check_Harmonic:

00000000 <Check_Harmonic>:
   0:	b570      	push	{r4, r5, r6, lr}
   2:	e9dd 5405 	ldrd	r5, r4, [sp, #20]
   6:	9e04      	ldr	r6, [sp, #16]
   8:	b321      	cbz	r1, 54 <Check_Harmonic+0x54>
   a:	4288      	cmp	r0, r1
   c:	dd02      	ble.n	14 <Check_Harmonic+0x14>
   e:	8028      	strh	r0, [r5, #0]
  10:	8021      	strh	r1, [r4, #0]
  12:	e001      	b.n	18 <Check_Harmonic+0x18>
  14:	8029      	strh	r1, [r5, #0]
  16:	8020      	strh	r0, [r4, #0]
  18:	f9b4 0000 	ldrsh.w	r0, [r4]
  1c:	b1b8      	cbz	r0, 4e <Check_Harmonic+0x4e>
  1e:	f9b5 1000 	ldrsh.w	r1, [r5]
  22:	fb91 f0f0 	sdiv	r0, r1, r0
  26:	8018      	strh	r0, [r3, #0]
  28:	f9b5 0000 	ldrsh.w	r0, [r5]
  2c:	f9b4 1000 	ldrsh.w	r1, [r4]
  30:	fb90 f3f1 	sdiv	r3, r0, r1
  34:	fb01 0013 	mls	r0, r1, r3, r0
  38:	8030      	strh	r0, [r6, #0]
  3a:	b200      	sxth	r0, r0
  3c:	4290      	cmp	r0, r2
  3e:	db04      	blt.n	4a <Check_Harmonic+0x4a>
  40:	f9b4 1000 	ldrsh.w	r1, [r4]
  44:	1a08      	subs	r0, r1, r0
  46:	4290      	cmp	r0, r2
  48:	da04      	bge.n	54 <Check_Harmonic+0x54>
  4a:	2001      	movs	r0, #1
  4c:	bd70      	pop	{r4, r5, r6, pc}
  4e:	2000      	movs	r0, #0
  50:	8018      	strh	r0, [r3, #0]
  52:	e7f1      	b.n	38 <Check_Harmonic+0x38>
  54:	2000      	movs	r0, #0
  56:	bd70      	pop	{r4, r5, r6, pc}

Disassembly of section i.Check_Harmonic_Full:

00000000 <Check_Harmonic_Full>:
   0:	b5f0      	push	{r4, r5, r6, r7, lr}
   2:	e9dd 4606 	ldrd	r4, r6, [sp, #24]
   6:	9f05      	ldr	r7, [sp, #20]
   8:	9d08      	ldr	r5, [sp, #32]
   a:	b3e9      	cbz	r1, 88 <Check_Harmonic_Full+0x88>
   c:	4288      	cmp	r0, r1
   e:	dd02      	ble.n	16 <Check_Harmonic_Full+0x16>
  10:	8020      	strh	r0, [r4, #0]
  12:	8031      	strh	r1, [r6, #0]
  14:	e001      	b.n	1a <Check_Harmonic_Full+0x1a>
  16:	8021      	strh	r1, [r4, #0]
  18:	8030      	strh	r0, [r6, #0]
  1a:	f9b6 0000 	ldrsh.w	r0, [r6]
  1e:	b198      	cbz	r0, 48 <Check_Harmonic_Full+0x48>
  20:	f9b4 1000 	ldrsh.w	r1, [r4]
  24:	fb91 f0f0 	sdiv	r0, r1, r0
  28:	8018      	strh	r0, [r3, #0]
  2a:	f9b4 0000 	ldrsh.w	r0, [r4]
  2e:	f9b6 1000 	ldrsh.w	r1, [r6]
  32:	fb90 fcf1 	sdiv	ip, r0, r1
  36:	fb01 001c 	mls	r0, r1, ip, r0
  3a:	b201      	sxth	r1, r0
  3c:	8038      	strh	r0, [r7, #0]
  3e:	4291      	cmp	r1, r2
  40:	da05      	bge.n	4e <Check_Harmonic_Full+0x4e>
  42:	f9b3 0000 	ldrsh.w	r0, [r3]
  46:	e00a      	b.n	5e <Check_Harmonic_Full+0x5e>
  48:	2000      	movs	r0, #0
  4a:	8018      	strh	r0, [r3, #0]
  4c:	e7f5      	b.n	3a <Check_Harmonic_Full+0x3a>
  4e:	f9b6 0000 	ldrsh.w	r0, [r6]
  52:	1a46      	subs	r6, r0, r1
  54:	4296      	cmp	r6, r2
  56:	da07      	bge.n	68 <Check_Harmonic_Full+0x68>
  58:	f9b3 0000 	ldrsh.w	r0, [r3]
  5c:	1c40      	adds	r0, r0, #1
  5e:	ee00 0a10 	vmov	s0, r0
  62:	eeb8 0ac0 	vcvt.f32.s32	s0, s0
  66:	e01f      	b.n	a8 <Check_Harmonic_Full+0xa8>
  68:	f9b3 6000 	ldrsh.w	r6, [r3]
  6c:	eeb7 0a08 	vmov.f32	s0, #120	; 0x3fc00000  1.5
  70:	2e01      	cmp	r6, #1
  72:	d107      	bne.n	84 <Check_Harmonic_Full+0x84>
  74:	ebc0 0341 	rsb	r3, r0, r1, lsl #1
  78:	2b00      	cmp	r3, #0
  7a:	d501      	bpl.n	80 <Check_Harmonic_Full+0x80>
  7c:	eba0 0341 	sub.w	r3, r0, r1, lsl #1
  80:	4293      	cmp	r3, r2
  82:	db11      	blt.n	a8 <Check_Harmonic_Full+0xa8>
  84:	2e01      	cmp	r6, #1
  86:	e000      	b.n	8a <Check_Harmonic_Full+0x8a>
  88:	e033      	b.n	f2 <Check_Harmonic_Full+0xf2>
  8a:	d111      	bne.n	b0 <Check_Harmonic_Full+0xb0>
  8c:	eb00 71d0 	add.w	r1, r0, r0, lsr #31
  90:	104e      	asrs	r6, r1, #1
  92:	f9b4 3000 	ldrsh.w	r3, [r4]
  96:	eb06 0146 	add.w	r1, r6, r6, lsl #1
  9a:	1ac9      	subs	r1, r1, r3
  9c:	d502      	bpl.n	a4 <Check_Harmonic_Full+0xa4>
  9e:	eba6 0186 	sub.w	r1, r6, r6, lsl #2
  a2:	4419      	add	r1, r3
  a4:	4291      	cmp	r1, r2
  a6:	da03      	bge.n	b0 <Check_Harmonic_Full+0xb0>
  a8:	ed85 0a00 	vstr	s0, [r5]
  ac:	2001      	movs	r0, #1
  ae:	bdf0      	pop	{r4, r5, r6, r7, pc}
  b0:	f9b4 1000 	ldrsh.w	r1, [r4]
  b4:	2203      	movs	r2, #3
  b6:	fb90 f4f2 	sdiv	r4, r0, r2
  ba:	fb90 f2f2 	sdiv	r2, r0, r2
  be:	17cb      	asrs	r3, r1, #31
  c0:	eb01 7393 	add.w	r3, r1, r3, lsr #30
  c4:	ebc4 04a3 	rsb	r4, r4, r3, asr #2
  c8:	2c00      	cmp	r4, #0
  ca:	d502      	bpl.n	d2 <Check_Harmonic_Full+0xd2>
  cc:	eba2 02a3 	sub.w	r2, r2, r3, asr #2
  d0:	e001      	b.n	d6 <Check_Harmonic_Full+0xd6>
  d2:	ebc2 02a3 	rsb	r2, r2, r3, asr #2
  d6:	2a02      	cmp	r2, #2
  d8:	da0b      	bge.n	f2 <Check_Harmonic_Full+0xf2>
  da:	ee00 1a10 	vmov	s0, r1
  de:	eef8 0ac0 	vcvt.f32.s32	s1, s0
  e2:	ee00 0a10 	vmov	s0, r0
  e6:	eeb8 0ac0 	vcvt.f32.s32	s0, s0
  ea:	ee80 1a80 	vdiv.f32	s2, s1, s0
  ee:	ed85 1a00 	vstr	s2, [r5]
  f2:	2000      	movs	r0, #0
  f4:	bdf0      	pop	{r4, r5, r6, r7, pc}

Disassembly of section i.Chk_If_Hr_In_Reason_Range:

00000000 <Chk_If_Hr_In_Reason_Range>:
   0:	b5f0      	push	{r4, r5, r6, r7, lr}
   2:	f500 5100 	add.w	r1, r0, #8192	; 0x2000
   6:	f9b1 2b1e 	ldrsh.w	r2, [r1, #2846]	; 0xb1e
   a:	2a03      	cmp	r2, #3
   c:	db33      	blt.n	76 <Chk_If_Hr_In_Reason_Range+0x76>
   e:	f891 1951 	ldrb.w	r1, [r1, #2385]	; 0x951
  12:	2901      	cmp	r1, #1
  14:	d12f      	bne.n	76 <Chk_If_Hr_In_Reason_Range+0x76>
  16:	f242 750f 	movw	r5, #9999	; 0x270f
  1a:	2200      	movs	r2, #0
  1c:	f9b0 60bc 	ldrsh.w	r6, [r0, #188]	; 0xbc
  20:	e027      	b.n	72 <Chk_If_Hr_In_Reason_Range+0x72>
  22:	ebc2 03c2 	rsb	r3, r2, r2, lsl #3
  26:	ebc3 2302 	rsb	r3, r3, r2, lsl #8
  2a:	f641 14fe 	movw	r4, #6654	; 0x19fe
  2e:	eb00 0383 	add.w	r3, r0, r3, lsl #2
  32:	2100      	movs	r1, #0
  34:	5ee7      	ldrsh	r7, [r4, r3]
  36:	e018      	b.n	6a <Chk_If_Hr_In_Reason_Range+0x6a>
  38:	eb02 0442 	add.w	r4, r2, r2, lsl #1
  3c:	4404      	add	r4, r0
  3e:	440c      	add	r4, r1
  40:	f504 5400 	add.w	r4, r4, #8192	; 0x2000
  44:	f894 4ab8 	ldrb.w	r4, [r4, #2744]	; 0xab8
  48:	2c01      	cmp	r4, #1
  4a:	d10c      	bne.n	66 <Chk_If_Hr_In_Reason_Range+0x66>
  4c:	eb03 0441 	add.w	r4, r3, r1, lsl #1
  50:	f504 5480 	add.w	r4, r4, #4096	; 0x1000
  54:	f9b4 49f8 	ldrsh.w	r4, [r4, #2552]	; 0x9f8
  58:	42ac      	cmp	r4, r5
  5a:	da04      	bge.n	66 <Chk_If_Hr_In_Reason_Range+0x66>
  5c:	f9b0 c024 	ldrsh.w	ip, [r0, #36]	; 0x24
  60:	4564      	cmp	r4, ip
  62:	dd00      	ble.n	66 <Chk_If_Hr_In_Reason_Range+0x66>
  64:	4625      	mov	r5, r4
  66:	1c49      	adds	r1, r1, #1
  68:	b209      	sxth	r1, r1
  6a:	428f      	cmp	r7, r1
  6c:	dce4      	bgt.n	38 <Chk_If_Hr_In_Reason_Range+0x38>
  6e:	1c52      	adds	r2, r2, #1
  70:	b212      	sxth	r2, r2
  72:	4296      	cmp	r6, r2
  74:	dcd5      	bgt.n	22 <Chk_If_Hr_In_Reason_Range+0x22>
  76:	2000      	movs	r0, #0
  78:	bdf0      	pop	{r4, r5, r6, r7, pc}

Disassembly of section i.Chk_If_Hr_Near_Motion:

00000000 <Chk_If_Hr_Near_Motion>:
   0:	b570      	push	{r4, r5, r6, lr}
   2:	f500 5400 	add.w	r4, r0, #8192	; 0x2000
   6:	4605      	mov	r5, r0
   8:	f894 0b46 	ldrb.w	r0, [r4, #2886]	; 0xb46
   c:	b087      	sub	sp, #28
   e:	2801      	cmp	r0, #1
  10:	d13f      	bne.n	92 <Chk_If_Hr_Near_Motion+0x92>
  12:	f894 0b11 	ldrb.w	r0, [r4, #2833]	; 0xb11
  16:	2801      	cmp	r0, #1
  18:	d13b      	bne.n	92 <Chk_If_Hr_Near_Motion+0x92>
  1a:	f9b4 0b30 	ldrsh.w	r0, [r4, #2864]	; 0xb30
  1e:	288c      	cmp	r0, #140	; 0x8c
  20:	dc03      	bgt.n	2a <Chk_If_Hr_Near_Motion+0x2a>
  22:	f9b4 01c0 	ldrsh.w	r0, [r4, #448]	; 0x1c0
  26:	288c      	cmp	r0, #140	; 0x8c
  28:	dd01      	ble.n	2e <Chk_If_Hr_Near_Motion+0x2e>
  2a:	2604      	movs	r6, #4
  2c:	e000      	b.n	30 <Chk_If_Hr_Near_Motion+0x30>
  2e:	2602      	movs	r6, #2
  30:	aa04      	add	r2, sp, #16
  32:	a903      	add	r1, sp, #12
  34:	a806      	add	r0, sp, #24
  36:	e88d 0007 	stmia.w	sp, {r0, r1, r2}
  3a:	8ae8      	ldrh	r0, [r5, #22]
  3c:	ab05      	add	r3, sp, #20
  3e:	1c80      	adds	r0, r0, #2
  40:	b202      	sxth	r2, r0
  42:	f8b4 0b44 	ldrh.w	r0, [r4, #2884]	; 0xb44
  46:	0040      	lsls	r0, r0, #1
  48:	b201      	sxth	r1, r0
  4a:	f9b4 0b12 	ldrsh.w	r0, [r4, #2834]	; 0xb12
  4e:	f7ff fffe 	bl	0 <Chk_If_Hr_Near_Motion>
  52:	2801      	cmp	r0, #1
  54:	d10e      	bne.n	74 <Chk_If_Hr_Near_Motion+0x74>
  56:	f9b4 1b12 	ldrsh.w	r1, [r4, #2834]	; 0xb12
  5a:	f9b4 2b44 	ldrsh.w	r2, [r4, #2884]	; 0xb44
  5e:	ebc1 0042 	rsb	r0, r1, r2, lsl #1
  62:	2800      	cmp	r0, #0
  64:	d501      	bpl.n	6a <Chk_If_Hr_Near_Motion+0x6a>
  66:	eba1 0042 	sub.w	r0, r1, r2, lsl #1
  6a:	f9b5 1016 	ldrsh.w	r1, [r5, #22]
  6e:	4431      	add	r1, r6
  70:	4288      	cmp	r0, r1
  72:	db0b      	blt.n	8c <Chk_If_Hr_Near_Motion+0x8c>
  74:	f9b4 21c0 	ldrsh.w	r2, [r4, #448]	; 0x1c0
  78:	f9b4 1b12 	ldrsh.w	r1, [r4, #2834]	; 0xb12
  7c:	1a50      	subs	r0, r2, r1
  7e:	d500      	bpl.n	82 <Chk_If_Hr_Near_Motion+0x82>
  80:	1a88      	subs	r0, r1, r2
  82:	f9b5 1016 	ldrsh.w	r1, [r5, #22]
  86:	4431      	add	r1, r6
  88:	4288      	cmp	r0, r1
  8a:	da02      	bge.n	92 <Chk_If_Hr_Near_Motion+0x92>
  8c:	2001      	movs	r0, #1
  8e:	f884 0b5c 	strb.w	r0, [r4, #2908]	; 0xb5c
  92:	b007      	add	sp, #28
  94:	bd70      	pop	{r4, r5, r6, pc}

Disassembly of section i.Chk_If_Hr_Should_Large_than_Motion_Idx:

00000000 <Chk_If_Hr_Should_Large_than_Motion_Idx>:
   0:	b5f0      	push	{r4, r5, r6, r7, lr}
   2:	f500 5100 	add.w	r1, r0, #8192	; 0x2000
   6:	f04f 0e00 	mov.w	lr, #0
   a:	f891 2b28 	ldrb.w	r2, [r1, #2856]	; 0xb28
   e:	2a01      	cmp	r2, #1
  10:	d169      	bne.n	e6 <Chk_If_Hr_Should_Large_than_Motion_Idx+0xe6>
  12:	f9b1 2b1e 	ldrsh.w	r2, [r1, #2846]	; 0xb1e
  16:	2a03      	cmp	r2, #3
  18:	db65      	blt.n	e6 <Chk_If_Hr_Should_Large_than_Motion_Idx+0xe6>
  1a:	f9b1 4b30 	ldrsh.w	r4, [r1, #2864]	; 0xb30
  1e:	2c69      	cmp	r4, #105	; 0x69
  20:	da61      	bge.n	e6 <Chk_If_Hr_Should_Large_than_Motion_Idx+0xe6>
  22:	f891 2b50 	ldrb.w	r2, [r1, #2896]	; 0xb50
  26:	2a01      	cmp	r2, #1
  28:	d15d      	bne.n	e6 <Chk_If_Hr_Should_Large_than_Motion_Idx+0xe6>
  2a:	f9b1 3b4c 	ldrsh.w	r3, [r1, #2892]	; 0xb4c
  2e:	f1a4 020a 	sub.w	r2, r4, #10
  32:	4293      	cmp	r3, r2
  34:	dd57      	ble.n	e6 <Chk_If_Hr_Should_Large_than_Motion_Idx+0xe6>
  36:	f500 5230 	add.w	r2, r0, #11264	; 0x2c00
  3a:	edd0 0a1f 	vldr	s1, [r0, #124]	; 0x7c
  3e:	ed92 0aab 	vldr	s0, [r2, #684]	; 0x2ac
  42:	eeb4 0ae0 	vcmpe.f32	s0, s1
  46:	eef1 fa10 	vmrs	APSR_nzcv, fpscr
  4a:	dd4c      	ble.n	e6 <Chk_If_Hr_Should_Large_than_Motion_Idx+0xe6>
  4c:	2300      	movs	r3, #0
  4e:	f9b0 70bc 	ldrsh.w	r7, [r0, #188]	; 0xbc
  52:	e052      	b.n	fa <Chk_If_Hr_Should_Large_than_Motion_Idx+0xfa>
  54:	eb00 0583 	add.w	r5, r0, r3, lsl #2
  58:	f642 268c 	movw	r6, #10892	; 0x2a8c
  5c:	2200      	movs	r2, #0
  5e:	5fae      	ldrsh	r6, [r5, r6]
  60:	e044      	b.n	ec <Chk_If_Hr_Should_Large_than_Motion_Idx+0xec>
  62:	bf00      	nop
  64:	eb03 0543 	add.w	r5, r3, r3, lsl #1
  68:	eb00 0c45 	add.w	ip, r0, r5, lsl #1
  6c:	4494      	add	ip, r2
  6e:	f50c 5c00 	add.w	ip, ip, #8192	; 0x2000
  72:	f89c caac 	ldrb.w	ip, [ip, #2732]	; 0xaac
  76:	f1bc 0f00 	cmp.w	ip, #0
  7a:	d135      	bne.n	e8 <Chk_If_Hr_Should_Large_than_Motion_Idx+0xe8>
  7c:	eb00 0585 	add.w	r5, r0, r5, lsl #2
  80:	eb05 0542 	add.w	r5, r5, r2, lsl #1
  84:	f505 5500 	add.w	r5, r5, #8192	; 0x2000
  88:	ed9f 1a1d 	vldr	s2, [pc, #116]	; 100 <Chk_If_Hr_Should_Large_than_Motion_Idx+0x100>
  8c:	f9b5 5a94 	ldrsh.w	r5, [r5, #2708]	; 0xa94
  90:	ee00 5a10 	vmov	s0, r5
  94:	eef8 0ac0 	vcvt.f32.s32	s1, s0
  98:	ee00 4a10 	vmov	s0, r4
  9c:	eeb8 0ac0 	vcvt.f32.s32	s0, s0
  a0:	ee20 0a01 	vmul.f32	s0, s0, s2
  a4:	eef4 0ac0 	vcmpe.f32	s1, s0
  a8:	eef1 fa10 	vmrs	APSR_nzcv, fpscr
  ac:	d21c      	bcs.n	e8 <Chk_If_Hr_Should_Large_than_Motion_Idx+0xe8>
  ae:	f9b1 cb14 	ldrsh.w	ip, [r1, #2836]	; 0xb14
  b2:	f1ac 0c03 	sub.w	ip, ip, #3
  b6:	4565      	cmp	r5, ip
  b8:	dd16      	ble.n	e8 <Chk_If_Hr_Should_Large_than_Motion_Idx+0xe8>
  ba:	eb03 0343 	add.w	r3, r3, r3, lsl #1
  be:	eb00 0083 	add.w	r0, r0, r3, lsl #2
  c2:	eb00 0042 	add.w	r0, r0, r2, lsl #1
  c6:	f642 2294 	movw	r2, #10900	; 0x2a94
  ca:	5e82      	ldrsh	r2, [r0, r2]
  cc:	f9b1 0b14 	ldrsh.w	r0, [r1, #2836]	; 0xb14
  d0:	1d40      	adds	r0, r0, #5
  d2:	4282      	cmp	r2, r0
  d4:	dd02      	ble.n	dc <Chk_If_Hr_Should_Large_than_Motion_Idx+0xdc>
  d6:	f8a1 0b12 	strh.w	r0, [r1, #2834]	; 0xb12
  da:	e001      	b.n	e0 <Chk_If_Hr_Should_Large_than_Motion_Idx+0xe0>
  dc:	f8a1 5b12 	strh.w	r5, [r1, #2834]	; 0xb12
  e0:	2001      	movs	r0, #1
  e2:	f881 0ed1 	strb.w	r0, [r1, #3793]	; 0xed1
  e6:	bdf0      	pop	{r4, r5, r6, r7, pc}
  e8:	1c52      	adds	r2, r2, #1
  ea:	b212      	sxth	r2, r2
  ec:	4296      	cmp	r6, r2
  ee:	dcb9      	bgt.n	64 <Chk_If_Hr_Should_Large_than_Motion_Idx+0x64>
  f0:	f1be 0f00 	cmp.w	lr, #0
  f4:	d1f7      	bne.n	e6 <Chk_If_Hr_Should_Large_than_Motion_Idx+0xe6>
  f6:	1c5b      	adds	r3, r3, #1
  f8:	b21b      	sxth	r3, r3
  fa:	429f      	cmp	r7, r3
  fc:	dcaa      	bgt.n	54 <Chk_If_Hr_Should_Large_than_Motion_Idx+0x54>
  fe:	bdf0      	pop	{r4, r5, r6, r7, pc}
 100:	3f99999a 	.word	0x3f99999a

Disassembly of section i.Chk_Steady_Motion_Idx_Ratio:

00000000 <Chk_Steady_Motion_Idx_Ratio>:
   0:	b530      	push	{r4, r5, lr}
   2:	f500 5100 	add.w	r1, r0, #8192	; 0x2000
   6:	f8d0 50b8 	ldr.w	r5, [r0, #184]	; 0xb8
   a:	f9b1 3b12 	ldrsh.w	r3, [r1, #2834]	; 0xb12
   e:	f9b1 4b30 	ldrsh.w	r4, [r1, #2864]	; 0xb30
  12:	ee00 3a10 	vmov	s0, r3
  16:	2201      	movs	r2, #1
  18:	eef8 0ac0 	vcvt.f32.s32	s1, s0
  1c:	ee00 4a10 	vmov	s0, r4
  20:	f8d1 487c 	ldr.w	r4, [r1, #2172]	; 0x87c
  24:	eeb8 1ac0 	vcvt.f32.s32	s2, s0
  28:	42ac      	cmp	r4, r5
  2a:	ee80 0a81 	vdiv.f32	s0, s1, s2
  2e:	dd12      	ble.n	56 <Chk_Steady_Motion_Idx_Ratio+0x56>
  30:	f8d1 5b2c 	ldr.w	r5, [r1, #2860]	; 0xb2c
  34:	42ac      	cmp	r4, r5
  36:	da0e      	bge.n	56 <Chk_Steady_Motion_Idx_Ratio+0x56>
  38:	edd0 0a11 	vldr	s1, [r0, #68]	; 0x44
  3c:	eef4 0ac0 	vcmpe.f32	s1, s0
  40:	eef1 fa10 	vmrs	APSR_nzcv, fpscr
  44:	d207      	bcs.n	56 <Chk_Steady_Motion_Idx_Ratio+0x56>
  46:	f9b1 0b14 	ldrsh.w	r0, [r1, #2836]	; 0xb14
  4a:	1a1b      	subs	r3, r3, r0
  4c:	2b03      	cmp	r3, #3
  4e:	dd02      	ble.n	56 <Chk_Steady_Motion_Idx_Ratio+0x56>
  50:	f8a1 0b12 	strh.w	r0, [r1, #2834]	; 0xb12
  54:	2200      	movs	r2, #0
  56:	4610      	mov	r0, r2
  58:	bd30      	pop	{r4, r5, pc}

Disassembly of section i.Comfirm_Hr_To_Low:

00000000 <Comfirm_Hr_To_Low>:
   0:	e92d 4fff 	stmdb	sp!, {r0, r1, r2, r3, r4, r5, r6, r7, r8, r9, sl, fp, lr}
   4:	4691      	mov	r9, r2
   6:	ed2d 0b02 	vpush	{d0}
   a:	ee00 1a90 	vmov	s1, r1
   e:	ed2d 8b02 	vpush	{d8}
  12:	b085      	sub	sp, #20
  14:	eef8 0ae0 	vcvt.f32.s32	s1, s1
  18:	9809      	ldr	r0, [sp, #36]	; 0x24
  1a:	eeb0 8a40 	vmov.f32	s16, s0
  1e:	f500 50e0 	add.w	r0, r0, #7168	; 0x1c00
  22:	ed90 1a71 	vldr	s2, [r0, #452]	; 0x1c4
  26:	9809      	ldr	r0, [sp, #36]	; 0x24
  28:	f500 5020 	add.w	r0, r0, #10240	; 0x2800
  2c:	ee61 0a20 	vmul.f32	s1, s2, s1
  30:	ed90 1ada 	vldr	s2, [r0, #872]	; 0x368
  34:	ee60 0a81 	vmul.f32	s1, s1, s2
  38:	ed9f 1a69 	vldr	s2, [pc, #420]	; 1e0 <Comfirm_Hr_To_Low+0x1e0>
  3c:	eec1 1a20 	vdiv.f32	s3, s2, s1
  40:	eefd 0ae1 	vcvt.s32.f32	s1, s3
  44:	ee10 0a90 	vmov	r0, s1
  48:	b200      	sxth	r0, r0
  4a:	9000      	str	r0, [sp, #0]
  4c:	2000      	movs	r0, #0
  4e:	9003      	str	r0, [sp, #12]
  50:	9002      	str	r0, [sp, #8]
  52:	9809      	ldr	r0, [sp, #36]	; 0x24
  54:	f9b0 10bc 	ldrsh.w	r1, [r0, #188]	; 0xbc
  58:	9802      	ldr	r0, [sp, #8]
  5a:	4281      	cmp	r1, r0
  5c:	dd70      	ble.n	140 <Comfirm_Hr_To_Low+0x140>
  5e:	980c      	ldr	r0, [sp, #48]	; 0x30
  60:	2801      	cmp	r0, #1
  62:	d014      	beq.n	8e <Comfirm_Hr_To_Low+0x8e>
  64:	f44f 4080 	mov.w	r0, #16384	; 0x4000
  68:	4606      	mov	r6, r0
  6a:	9802      	ldr	r0, [sp, #8]
  6c:	f04f 35ff 	mov.w	r5, #4294967295	; 0xffffffff
  70:	ebc0 01c0 	rsb	r1, r0, r0, lsl #3
  74:	ebc1 2100 	rsb	r1, r1, r0, lsl #8
  78:	9809      	ldr	r0, [sp, #36]	; 0x24
  7a:	eb00 0b81 	add.w	fp, r0, r1, lsl #2
  7e:	f50b 5880 	add.w	r8, fp, #4096	; 0x1000
  82:	f9b8 09f2 	ldrsh.w	r0, [r8, #2546]	; 0x9f2
  86:	eb00 70d0 	add.w	r0, r0, r0, lsr #31
  8a:	1044      	asrs	r4, r0, #1
  8c:	e025      	b.n	da <Comfirm_Hr_To_Low+0xda>
  8e:	4855      	ldr	r0, [pc, #340]	; (1e4 <Comfirm_Hr_To_Low+0x1e4>)
  90:	e7ea      	b.n	68 <Comfirm_Hr_To_Low+0x68>
  92:	980c      	ldr	r0, [sp, #48]	; 0x30
  94:	4621      	mov	r1, r4
  96:	2801      	cmp	r0, #1
  98:	f50b 50d0 	add.w	r0, fp, #6656	; 0x1a00
  9c:	d004      	beq.n	c <Is_n_Peak+0xc>
  9e:	f7ff fffe 	bl	0 <Is_n_Peak>
  a2:	2801      	cmp	r0, #1
  a4:	d00d      	beq.n	c2 <Comfirm_Hr_To_Low+0xc2>
  a6:	e016      	b.n	d6 <Comfirm_Hr_To_Low+0xd6>
  a8:	f7ff fffe 	bl	0 <Is_p_Peak>
  ac:	2801      	cmp	r0, #1
  ae:	d112      	bne.n	d6 <Comfirm_Hr_To_Low+0xd6>
  b0:	eb0b 0084 	add.w	r0, fp, r4, lsl #2
  b4:	f500 5080 	add.w	r0, r0, #4096	; 0x1000
  b8:	f8d0 0a00 	ldr.w	r0, [r0, #2560]	; 0xa00
  bc:	42b0      	cmp	r0, r6
  be:	dc08      	bgt.n	d2 <Comfirm_Hr_To_Low+0xd2>
  c0:	e009      	b.n	d6 <Comfirm_Hr_To_Low+0xd6>
  c2:	eb0b 0084 	add.w	r0, fp, r4, lsl #2
  c6:	f500 5080 	add.w	r0, r0, #4096	; 0x1000
  ca:	f8d0 0a00 	ldr.w	r0, [r0, #2560]	; 0xa00
  ce:	42b0      	cmp	r0, r6
  d0:	da01      	bge.n	d6 <Comfirm_Hr_To_Low+0xd6>
  d2:	4625      	mov	r5, r4
  d4:	4606      	mov	r6, r0
  d6:	1c64      	adds	r4, r4, #1
  d8:	b224      	sxth	r4, r4
  da:	f9b8 09f2 	ldrsh.w	r0, [r8, #2546]	; 0x9f2
  de:	1e40      	subs	r0, r0, #1
  e0:	42a0      	cmp	r0, r4
  e2:	dcd6      	bgt.n	92 <Comfirm_Hr_To_Low+0x92>
  e4:	1c68      	adds	r0, r5, #1
  e6:	d070      	beq.n	1ca <Comfirm_Hr_To_Low+0x1ca>
  e8:	ee00 6a90 	vmov	s1, r6
  ec:	f04f 0a00 	mov.w	sl, #0
  f0:	eeb8 0ae0 	vcvt.f32.s32	s0, s1
  f4:	ee28 0a00 	vmul.f32	s0, s16, s0
  f8:	eebd 0ac0 	vcvt.s32.f32	s0, s0
  fc:	ee10 0a10 	vmov	r0, s0
 100:	9004      	str	r0, [sp, #16]
 102:	9800      	ldr	r0, [sp, #0]
 104:	4240      	negs	r0, r0
 106:	b200      	sxth	r0, r0
 108:	9001      	str	r0, [sp, #4]
 10a:	e003      	b.n	114 <Comfirm_Hr_To_Low+0x114>
 10c:	f1ba 0f00 	cmp.w	sl, #0
 110:	d017      	beq.n	142 <Comfirm_Hr_To_Low+0x142>
 112:	9800      	ldr	r0, [sp, #0]
 114:	1829      	adds	r1, r5, r0
 116:	eba1 0009 	sub.w	r0, r1, r9
 11a:	b204      	sxth	r4, r0
 11c:	f9b8 09f2 	ldrsh.w	r0, [r8, #2546]	; 0x9f2
 120:	17c2      	asrs	r2, r0, #31
 122:	eb00 7292 	add.w	r2, r0, r2, lsr #30
 126:	ebb4 0fa2 	cmp.w	r4, r2, asr #2
 12a:	da00      	bge.n	12e <Comfirm_Hr_To_Low+0x12e>
 12c:	1094      	asrs	r4, r2, #2
 12e:	4449      	add	r1, r9
 130:	b20e      	sxth	r6, r1
 132:	42b0      	cmp	r0, r6
 134:	da00      	bge.n	138 <Comfirm_Hr_To_Low+0x138>
 136:	4606      	mov	r6, r0
 138:	f04f 37ff 	mov.w	r7, #4294967295	; 0xffffffff
 13c:	1e76      	subs	r6, r6, #1
 13e:	e021      	b.n	184 <Comfirm_Hr_To_Low+0x184>
 140:	e047      	b.n	1d2 <Comfirm_Hr_To_Low+0x1d2>
 142:	9801      	ldr	r0, [sp, #4]
 144:	e7e6      	b.n	114 <Comfirm_Hr_To_Low+0x114>
 146:	980c      	ldr	r0, [sp, #48]	; 0x30
 148:	2801      	cmp	r0, #1
 14a:	eb0b 0084 	add.w	r0, fp, r4, lsl #2
 14e:	f500 5080 	add.w	r0, r0, #4096	; 0x1000
 152:	f8d0 1a00 	ldr.w	r1, [r0, #2560]	; 0xa00
 156:	9804      	ldr	r0, [sp, #16]
 158:	d009      	beq.n	16e <Comfirm_Hr_To_Low+0x16e>
 15a:	4281      	cmp	r1, r0
 15c:	da10      	bge.n	180 <Comfirm_Hr_To_Low+0x180>
 15e:	f50b 50d0 	add.w	r0, fp, #6656	; 0x1a00
 162:	4621      	mov	r1, r4
 164:	f7ff fffe 	bl	0 <Is_n_Peak>
 168:	2801      	cmp	r0, #1
 16a:	d008      	beq.n	17e <Comfirm_Hr_To_Low+0x17e>
 16c:	e008      	b.n	180 <Comfirm_Hr_To_Low+0x180>
 16e:	4281      	cmp	r1, r0
 170:	dd06      	ble.n	180 <Comfirm_Hr_To_Low+0x180>
 172:	f50b 50d0 	add.w	r0, fp, #6656	; 0x1a00
 176:	4621      	mov	r1, r4
 178:	f7ff fffe 	bl	0 <Is_p_Peak>
 17c:	e7f4      	b.n	168 <Comfirm_Hr_To_Low+0x168>
 17e:	4627      	mov	r7, r4
 180:	1c64      	adds	r4, r4, #1
 182:	b224      	sxth	r4, r4
 184:	42b4      	cmp	r4, r6
 186:	dbde      	blt.n	146 <Comfirm_Hr_To_Low+0x146>
 188:	1c78      	adds	r0, r7, #1
 18a:	d017      	beq.n	1bc <Comfirm_Hr_To_Low+0x1bc>
 18c:	1be8      	subs	r0, r5, r7
 18e:	d501      	bpl.n	194 <Comfirm_Hr_To_Low+0x194>
 190:	1b79      	subs	r1, r7, r5
 192:	e000      	b.n	196 <Comfirm_Hr_To_Low+0x196>
 194:	4601      	mov	r1, r0
 196:	9a00      	ldr	r2, [sp, #0]
 198:	1a89      	subs	r1, r1, r2
 19a:	d504      	bpl.n	1a6 <Comfirm_Hr_To_Low+0x1a6>
 19c:	2800      	cmp	r0, #0
 19e:	d500      	bpl.n	1a2 <Comfirm_Hr_To_Low+0x1a2>
 1a0:	1b78      	subs	r0, r7, r5
 1a2:	1a10      	subs	r0, r2, r0
 1a4:	e003      	b.n	1ae <Comfirm_Hr_To_Low+0x1ae>
 1a6:	2800      	cmp	r0, #0
 1a8:	d500      	bpl.n	1ac <Comfirm_Hr_To_Low+0x1ac>
 1aa:	1b78      	subs	r0, r7, r5
 1ac:	1a80      	subs	r0, r0, r2
 1ae:	9916      	ldr	r1, [sp, #88]	; 0x58
 1b0:	4288      	cmp	r0, r1
 1b2:	da03      	bge.n	1bc <Comfirm_Hr_To_Low+0x1bc>
 1b4:	9803      	ldr	r0, [sp, #12]
 1b6:	1c40      	adds	r0, r0, #1
 1b8:	b200      	sxth	r0, r0
 1ba:	9003      	str	r0, [sp, #12]
 1bc:	f10a 0001 	add.w	r0, sl, #1
 1c0:	fa0f fa80 	sxth.w	sl, r0
 1c4:	f1ba 0f02 	cmp.w	sl, #2
 1c8:	dba0      	blt.n	10c <Comfirm_Hr_To_Low+0x10c>
 1ca:	9802      	ldr	r0, [sp, #8]
 1cc:	1c40      	adds	r0, r0, #1
 1ce:	b200      	sxth	r0, r0
 1d0:	e73e      	b.n	50 <Comfirm_Hr_To_Low+0x50>
 1d2:	9803      	ldr	r0, [sp, #12]
 1d4:	b005      	add	sp, #20
 1d6:	ecbd 8b02 	vpop	{d8}
 1da:	b006      	add	sp, #24
 1dc:	e8bd 8ff0 	ldmia.w	sp!, {r4, r5, r6, r7, r8, r9, sl, fp, pc}
 1e0:	44960000 	.word	0x44960000
 1e4:	ffffc000 	.word	0xffffc000

Disassembly of section i.Constrain_Too_LowHigh:

00000000 <Constrain_Too_LowHigh>:
   0:	b510      	push	{r4, lr}
   2:	f500 5100 	add.w	r1, r0, #8192	; 0x2000
   6:	f891 2b80 	ldrb.w	r2, [r1, #2944]	; 0xb80
   a:	bbe2      	cbnz	r2, 86 <Constrain_Too_LowHigh+0x86>
   c:	f9b1 3b12 	ldrsh.w	r3, [r1, #2834]	; 0xb12
  10:	f9b0 2090 	ldrsh.w	r2, [r0, #144]	; 0x90
  14:	4293      	cmp	r3, r2
  16:	da02      	bge.n	1e <Constrain_Too_LowHigh+0x1e>
  18:	1c92      	adds	r2, r2, #2
  1a:	f8a1 2b12 	strh.w	r2, [r1, #2834]	; 0xb12
  1e:	f891 2b50 	ldrb.w	r2, [r1, #2896]	; 0xb50
  22:	2a01      	cmp	r2, #1
  24:	d132      	bne.n	8c <Constrain_Too_LowHigh+0x8c>
  26:	f8d1 2b88 	ldr.w	r2, [r1, #2952]	; 0xb88
  2a:	bb62      	cbnz	r2, 86 <Constrain_Too_LowHigh+0x86>
  2c:	f9b1 2b4c 	ldrsh.w	r2, [r1, #2892]	; 0xb4c
  30:	f9b1 4b12 	ldrsh.w	r4, [r1, #2834]	; 0xb12
  34:	f1a2 030a 	sub.w	r3, r2, #10
  38:	429c      	cmp	r4, r3
  3a:	da27      	bge.n	8c <Constrain_Too_LowHigh+0x8c>
  3c:	2a41      	cmp	r2, #65	; 0x41
  3e:	da25      	bge.n	8c <Constrain_Too_LowHigh+0x8c>
  40:	f500 5230 	add.w	r2, r0, #11264	; 0x2c00
  44:	f8b0 30bc 	ldrh.w	r3, [r0, #188]	; 0xbc
  48:	ed92 0aab 	vldr	s0, [r2, #684]	; 0x2ac
  4c:	2b02      	cmp	r3, #2
  4e:	d107      	bne.n	60 <Constrain_Too_LowHigh+0x60>
  50:	edd2 0aac 	vldr	s1, [r2, #688]	; 0x2b0
  54:	ee30 0a20 	vadd.f32	s0, s0, s1
  58:	eef6 0a00 	vmov.f32	s1, #96	; 0x3f000000  0.5
  5c:	ee20 0a20 	vmul.f32	s0, s0, s1
  60:	edd0 0a0d 	vldr	s1, [r0, #52]	; 0x34
  64:	eebd 0ac0 	vcvt.s32.f32	s0, s0
  68:	ee10 2a10 	vmov	r2, s0
  6c:	b212      	sxth	r2, r2
  6e:	ee00 2a10 	vmov	s0, r2
  72:	eeb8 0ac0 	vcvt.f32.s32	s0, s0
  76:	eef4 0ac0 	vcmpe.f32	s1, s0
  7a:	eef1 fa10 	vmrs	APSR_nzcv, fpscr
  7e:	dd05      	ble.n	8c <Constrain_Too_LowHigh+0x8c>
  80:	f8b1 2b14 	ldrh.w	r2, [r1, #2836]	; 0xb14
  84:	e000      	b.n	88 <Constrain_Too_LowHigh+0x88>
  86:	e001      	b.n	8c <Constrain_Too_LowHigh+0x8c>
  88:	f8a1 2b12 	strh.w	r2, [r1, #2834]	; 0xb12
  8c:	f891 2b86 	ldrb.w	r2, [r1, #2950]	; 0xb86
  90:	2a00      	cmp	r2, #0
  92:	d107      	bne.n	a4 <Constrain_Too_LowHigh+0xa4>
  94:	f9b1 2b12 	ldrsh.w	r2, [r1, #2834]	; 0xb12
  98:	f9b0 0022 	ldrsh.w	r0, [r0, #34]	; 0x22
  9c:	4282      	cmp	r2, r0
  9e:	dd01      	ble.n	a4 <Constrain_Too_LowHigh+0xa4>
  a0:	f8a1 0b12 	strh.w	r0, [r1, #2834]	; 0xb12
  a4:	bd10      	pop	{r4, pc}

Disassembly of section i.Est_Motion_Idx_From_Mems_Eng:

00000000 <Est_Motion_Idx_From_Mems_Eng>:
   0:	e92d 4ffe 	stmdb	sp!, {r1, r2, r3, r4, r5, r6, r7, r8, r9, sl, fp, lr}
   4:	f500 5400 	add.w	r4, r0, #8192	; 0x2000
   8:	4606      	mov	r6, r0
   a:	f8d4 087c 	ldr.w	r0, [r4, #2172]	; 0x87c
   e:	ee00 0a10 	vmov	s0, r0
  12:	eeb8 0ac0 	vcvt.f32.s32	s0, s0
  16:	f7ff fffe 	bl	0 <__hardfp_log10f>
  1a:	f9b6 0058 	ldrsh.w	r0, [r6, #88]	; 0x58
  1e:	ee00 0a90 	vmov	s1, r0
  22:	eef8 0ae0 	vcvt.f32.s32	s1, s1
  26:	ee20 0a20 	vmul.f32	s0, s0, s1
  2a:	eebd 0ac0 	vcvt.s32.f32	s0, s0
  2e:	ee10 0a10 	vmov	r0, s0
  32:	b205      	sxth	r5, r0
  34:	f8b4 0b30 	ldrh.w	r0, [r4, #2864]	; 0xb30
  38:	2846      	cmp	r0, #70	; 0x46
  3a:	d103      	bne.n	44 <Est_Motion_Idx_From_Mems_Eng+0x44>
  3c:	f8b4 01c0 	ldrh.w	r0, [r4, #448]	; 0x1c0
  40:	f8a4 0b30 	strh.w	r0, [r4, #2864]	; 0xb30
  44:	f9b4 1b30 	ldrsh.w	r1, [r4, #2864]	; 0xb30
  48:	eb01 73d1 	add.w	r3, r1, r1, lsr #31
  4c:	eba5 0063 	sub.w	r0, r5, r3, asr #1
  50:	2800      	cmp	r0, #0
  52:	d501      	bpl.n	58 <Est_Motion_Idx_From_Mems_Eng+0x58>
  54:	ebc5 0063 	rsb	r0, r5, r3, asr #1
  58:	ee00 1a10 	vmov	s0, r1
  5c:	b202      	sxth	r2, r0
  5e:	f8ad 2000 	strh.w	r2, [sp]
  62:	eef8 0ac0 	vcvt.f32.s32	s1, s0
  66:	eeb7 0a08 	vmov.f32	s0, #120	; 0x3fc00000  1.5
  6a:	ee80 1a80 	vdiv.f32	s2, s1, s0
  6e:	ee00 5a90 	vmov	s1, r5
  72:	eef8 0ae0 	vcvt.f32.s32	s1, s1
  76:	ee70 0ac1 	vsub.f32	s1, s1, s2
  7a:	eef5 0ac0 	vcmpe.f32	s1, #0.0
  7e:	eef1 fa10 	vmrs	APSR_nzcv, fpscr
  82:	ee00 1a90 	vmov	s1, r1
  86:	eef8 0ae0 	vcvt.f32.s32	s1, s1
  8a:	ee80 1a80 	vdiv.f32	s2, s1, s0
  8e:	ee00 5a90 	vmov	s1, r5
  92:	eef8 0ae0 	vcvt.f32.s32	s1, s1
  96:	d202      	bcs.n	9e <Est_Motion_Idx_From_Mems_Eng+0x9e>
  98:	ee71 0a60 	vsub.f32	s1, s2, s1
  9c:	e001      	b.n	a2 <Est_Motion_Idx_From_Mems_Eng+0xa2>
  9e:	ee70 0ac1 	vsub.f32	s1, s1, s2
  a2:	eefd 0ae0 	vcvt.s32.f32	s1, s1
  a6:	ee10 0a90 	vmov	r0, s1
  aa:	b200      	sxth	r0, r0
  ac:	f8ad 0002 	strh.w	r0, [sp, #2]
  b0:	4681      	mov	r9, r0
  b2:	1a68      	subs	r0, r5, r1
  b4:	d500      	bpl.n	b8 <Est_Motion_Idx_From_Mems_Eng+0xb8>
  b6:	1b48      	subs	r0, r1, r5
  b8:	b200      	sxth	r0, r0
  ba:	f8ad 0004 	strh.w	r0, [sp, #4]
  be:	4682      	mov	sl, r0
  c0:	4248      	negs	r0, r1
  c2:	eb15 0040 	adds.w	r0, r5, r0, lsl #1
  c6:	d501      	bpl.n	cc <Est_Motion_Idx_From_Mems_Eng+0xcc>
  c8:	ebc5 0041 	rsb	r0, r5, r1, lsl #1
  cc:	b200      	sxth	r0, r0
  ce:	f8ad 0006 	strh.w	r0, [sp, #6]
  d2:	f9b4 61c0 	ldrsh.w	r6, [r4, #448]	; 0x1c0
  d6:	4683      	mov	fp, r0
  d8:	1ba8      	subs	r0, r5, r6
  da:	d500      	bpl.n	de <Est_Motion_Idx_From_Mems_Eng+0xde>
  dc:	1b70      	subs	r0, r6, r5
  de:	f8ad 0008 	strh.w	r0, [sp, #8]
  e2:	2000      	movs	r0, #0
  e4:	4694      	mov	ip, r2
  e6:	2701      	movs	r7, #1
  e8:	ea4f 0e0d 	mov.w	lr, sp
  ec:	f93e 8017 	ldrsh.w	r8, [lr, r7, lsl #1]
  f0:	45e0      	cmp	r8, ip
  f2:	da01      	bge.n	f8 <Est_Motion_Idx_From_Mems_Eng+0xf8>
  f4:	46c4      	mov	ip, r8
  f6:	4638      	mov	r0, r7
  f8:	1c7f      	adds	r7, r7, #1
  fa:	b23f      	sxth	r7, r7
  fc:	2f05      	cmp	r7, #5
  fe:	dbf5      	blt.n	ec <Est_Motion_Idx_From_Mems_Eng+0xec>
 100:	ee00 1a90 	vmov	s1, r1
 104:	f04f 0e03 	mov.w	lr, #3
 108:	eef8 0ae0 	vcvt.f32.s32	s1, s1
 10c:	ee80 1a80 	vdiv.f32	s2, s1, s0
 110:	ee00 5a90 	vmov	s1, r5
 114:	eef8 0ae0 	vcvt.f32.s32	s1, s1
 118:	eeb4 1ae0 	vcmpe.f32	s2, s1
 11c:	eef1 fa10 	vmrs	APSR_nzcv, fpscr
 120:	db55      	blt.n	1ce <Est_Motion_Idx_From_Mems_Eng+0x1ce>
 122:	17cf      	asrs	r7, r1, #31
 124:	f8d4 5588 	ldr.w	r5, [r4, #1416]	; 0x588
 128:	eb01 7797 	add.w	r7, r1, r7, lsr #30
 12c:	f027 0703 	bic.w	r7, r7, #3
 130:	ea4f 0c63 	mov.w	ip, r3, asr #1
 134:	59ef      	ldr	r7, [r5, r7]
 136:	f855 a02c 	ldr.w	sl, [r5, ip, lsl #2]
 13a:	46f3      	mov	fp, lr
 13c:	eb07 0c0a 	add.w	ip, r7, sl
 140:	eb01 0741 	add.w	r7, r1, r1, lsl #1
 144:	ea4f 78e7 	mov.w	r8, r7, asr #31
 148:	eb07 7798 	add.w	r7, r7, r8, lsr #30
 14c:	f027 0703 	bic.w	r7, r7, #3
 150:	59ef      	ldr	r7, [r5, r7]
 152:	44bc      	add	ip, r7
 154:	fb9c f7fb 	sdiv	r7, ip, fp
 158:	b23f      	sxth	r7, r7
 15a:	46d4      	mov	ip, sl
 15c:	45ba      	cmp	sl, r7
 15e:	db00      	blt.n	162 <Est_Motion_Idx_From_Mems_Eng+0x162>
 160:	4667      	mov	r7, ip
 162:	fa0f fa87 	sxth.w	sl, r7
 166:	ea4f 0c41 	mov.w	ip, r1, lsl #1
 16a:	fb9c f8fb 	sdiv	r8, ip, fp
 16e:	fb91 f7fb 	sdiv	r7, r1, fp
 172:	f855 8028 	ldr.w	r8, [r5, r8, lsl #2]
 176:	f855 7027 	ldr.w	r7, [r5, r7, lsl #2]
 17a:	45b8      	cmp	r8, r7
 17c:	dd02      	ble.n	184 <Est_Motion_Idx_From_Mems_Eng+0x184>
 17e:	fb9c f7fb 	sdiv	r7, ip, fp
 182:	e001      	b.n	188 <Est_Motion_Idx_From_Mems_Eng+0x188>
 184:	fb91 f7fb 	sdiv	r7, r1, fp
 188:	f855 5027 	ldr.w	r5, [r5, r7, lsl #2]
 18c:	b22d      	sxth	r5, r5
 18e:	ebaa 0705 	sub.w	r7, sl, r5
 192:	2f64      	cmp	r7, #100	; 0x64
 194:	dd01      	ble.n	19a <Est_Motion_Idx_From_Mems_Eng+0x19a>
 196:	1059      	asrs	r1, r3, #1
 198:	e076      	b.n	288 <Est_Motion_Idx_From_Mems_Eng+0x288>
 19a:	eba5 050a 	sub.w	r5, r5, sl
 19e:	2d64      	cmp	r5, #100	; 0x64
 1a0:	dc03      	bgt.n	1aa <Est_Motion_Idx_From_Mems_Eng+0x1aa>
 1a2:	eba2 0509 	sub.w	r5, r2, r9
 1a6:	2d0f      	cmp	r5, #15
 1a8:	dd0a      	ble.n	1c0 <Est_Motion_Idx_From_Mems_Eng+0x1c0>
 1aa:	ee00 1a90 	vmov	s1, r1
 1ae:	eef8 0ae0 	vcvt.f32.s32	s1, s1
 1b2:	ee80 1a80 	vdiv.f32	s2, s1, s0
 1b6:	eebd 0ac1 	vcvt.s32.f32	s0, s2
 1ba:	ee10 1a10 	vmov	r1, s0
 1be:	e063      	b.n	288 <Est_Motion_Idx_From_Mems_Eng+0x288>
 1c0:	eba9 0202 	sub.w	r2, r9, r2
 1c4:	2a0f      	cmp	r2, #15
 1c6:	dce6      	bgt.n	196 <Est_Motion_Idx_From_Mems_Eng+0x196>
 1c8:	2f00      	cmp	r7, #0
 1ca:	ddee      	ble.n	1aa <Est_Motion_Idx_From_Mems_Eng+0x1aa>
 1cc:	e7e3      	b.n	196 <Est_Motion_Idx_From_Mems_Eng+0x196>
 1ce:	ee00 1a90 	vmov	s1, r1
 1d2:	eef8 0ae0 	vcvt.f32.s32	s1, s1
 1d6:	ee80 1a80 	vdiv.f32	s2, s1, s0
 1da:	ee00 5a90 	vmov	s1, r5
 1de:	eef8 0ae0 	vcvt.f32.s32	s1, s1
 1e2:	eeb4 1ae0 	vcmpe.f32	s2, s1
 1e6:	eef1 fa10 	vmrs	APSR_nzcv, fpscr
 1ea:	d244      	bcs.n	276 <Est_Motion_Idx_From_Mems_Eng+0x276>
 1ec:	42a9      	cmp	r1, r5
 1ee:	dd42      	ble.n	276 <Est_Motion_Idx_From_Mems_Eng+0x276>
 1f0:	ea4f 0841 	mov.w	r8, r1, lsl #1
 1f4:	4675      	mov	r5, lr
 1f6:	fb98 f7f5 	sdiv	r7, r8, r5
 1fa:	fb91 fcfe 	sdiv	ip, r1, lr
 1fe:	f8d4 2588 	ldr.w	r2, [r4, #1416]	; 0x588
 202:	f852 7027 	ldr.w	r7, [r2, r7, lsl #2]
 206:	f852 c02c 	ldr.w	ip, [r2, ip, lsl #2]
 20a:	4567      	cmp	r7, ip
 20c:	dd02      	ble.n	214 <Est_Motion_Idx_From_Mems_Eng+0x214>
 20e:	fb98 f5fe 	sdiv	r5, r8, lr
 212:	e001      	b.n	218 <Est_Motion_Idx_From_Mems_Eng+0x218>
 214:	fb91 f5fe 	sdiv	r5, r1, lr
 218:	f852 7031 	ldr.w	r7, [r2, r1, lsl #3]
 21c:	f852 5025 	ldr.w	r5, [r2, r5, lsl #2]
 220:	fa0f fc85 	sxth.w	ip, r5
 224:	105d      	asrs	r5, r3, #1
 226:	f852 5025 	ldr.w	r5, [r2, r5, lsl #2]
 22a:	42bd      	cmp	r5, r7
 22c:	dd00      	ble.n	230 <Est_Motion_Idx_From_Mems_Eng+0x230>
 22e:	462f      	mov	r7, r5
 230:	b23f      	sxth	r7, r7
 232:	2801      	cmp	r0, #1
 234:	d116      	bne.n	264 <Est_Motion_Idx_From_Mems_Eng+0x264>
 236:	ee00 5a90 	vmov	s1, r5
 23a:	eef8 0ae0 	vcvt.f32.s32	s1, s1
 23e:	ed9f 1a4f 	vldr	s2, [pc, #316]	; 37c <Est_Motion_Idx_From_Mems_Eng+0x37c>
 242:	f852 2021 	ldr.w	r2, [r2, r1, lsl #2]
 246:	ee20 1a81 	vmul.f32	s2, s1, s2
 24a:	ee00 2a90 	vmov	s1, r2
 24e:	eef8 0ae0 	vcvt.f32.s32	s1, s1
 252:	eeb4 1ae0 	vcmpe.f32	s2, s1
 256:	eef1 fa10 	vmrs	APSR_nzcv, fpscr
 25a:	dd03      	ble.n	264 <Est_Motion_Idx_From_Mems_Eng+0x264>
 25c:	1058      	asrs	r0, r3, #1
 25e:	f8a4 0b30 	strh.w	r0, [r4, #2864]	; 0xb30
 262:	e026      	b.n	2b2 <Est_Motion_Idx_From_Mems_Eng+0x2b2>
 264:	ebac 0207 	sub.w	r2, ip, r7
 268:	2a64      	cmp	r2, #100	; 0x64
 26a:	db0f      	blt.n	28c <Est_Motion_Idx_From_Mems_Eng+0x28c>
 26c:	eba9 020a 	sub.w	r2, r9, sl
 270:	2a00      	cmp	r2, #0
 272:	dc0b      	bgt.n	28c <Est_Motion_Idx_From_Mems_Eng+0x28c>
 274:	e799      	b.n	1aa <Est_Motion_Idx_From_Mems_Eng+0x1aa>
 276:	42a9      	cmp	r1, r5
 278:	dc08      	bgt.n	28c <Est_Motion_Idx_From_Mems_Eng+0x28c>
 27a:	293c      	cmp	r1, #60	; 0x3c
 27c:	db03      	blt.n	286 <Est_Motion_Idx_From_Mems_Eng+0x286>
 27e:	ebaa 020b 	sub.w	r2, sl, fp
 282:	2a00      	cmp	r2, #0
 284:	dd02      	ble.n	28c <Est_Motion_Idx_From_Mems_Eng+0x28c>
 286:	0049      	lsls	r1, r1, #1
 288:	f8a4 1b30 	strh.w	r1, [r4, #2864]	; 0xb30
 28c:	2804      	cmp	r0, #4
 28e:	d110      	bne.n	2b2 <Est_Motion_Idx_From_Mems_Eng+0x2b2>
 290:	eb06 70d6 	add.w	r0, r6, r6, lsr #31
 294:	f8d4 1588 	ldr.w	r1, [r4, #1416]	; 0x588
 298:	1040      	asrs	r0, r0, #1
 29a:	f9b4 2b30 	ldrsh.w	r2, [r4, #2864]	; 0xb30
 29e:	f831 0020 	ldrh.w	r0, [r1, r0, lsl #2]
 2a2:	f831 1022 	ldrh.w	r1, [r1, r2, lsl #2]
 2a6:	b200      	sxth	r0, r0
 2a8:	b209      	sxth	r1, r1
 2aa:	4288      	cmp	r0, r1
 2ac:	dd01      	ble.n	2b2 <Est_Motion_Idx_From_Mems_Eng+0x2b2>
 2ae:	f8a4 6b30 	strh.w	r6, [r4, #2864]	; 0xb30
 2b2:	f9b4 0b30 	ldrsh.w	r0, [r4, #2864]	; 0xb30
 2b6:	287d      	cmp	r0, #125	; 0x7d
 2b8:	dd04      	ble.n	2c4 <Est_Motion_Idx_From_Mems_Eng+0x2c4>
 2ba:	f8d4 187c 	ldr.w	r1, [r4, #2172]	; 0x87c
 2be:	f5b1 6ffa 	cmp.w	r1, #2000	; 0x7d0
 2c2:	db06      	blt.n	2d2 <Est_Motion_Idx_From_Mems_Eng+0x2d2>
 2c4:	286e      	cmp	r0, #110	; 0x6e
 2c6:	dd32      	ble.n	32e <Est_Motion_Idx_From_Mems_Eng+0x32e>
 2c8:	f8d4 187c 	ldr.w	r1, [r4, #2172]	; 0x87c
 2cc:	f5b1 7f7a 	cmp.w	r1, #1000	; 0x3e8
 2d0:	da2d      	bge.n	32e <Est_Motion_Idx_From_Mems_Eng+0x32e>
 2d2:	f8d4 2588 	ldr.w	r2, [r4, #1416]	; 0x588
 2d6:	eb00 75d0 	add.w	r5, r0, r0, lsr #31
 2da:	106b      	asrs	r3, r5, #1
 2dc:	f852 1020 	ldr.w	r1, [r2, r0, lsl #2]
 2e0:	f852 3023 	ldr.w	r3, [r2, r3, lsl #2]
 2e4:	eb01 76d1 	add.w	r6, r1, r1, lsr #31
 2e8:	ebb3 0f66 	cmp.w	r3, r6, asr #1
 2ec:	dc1c      	bgt.n	328 <Est_Motion_Idx_From_Mems_Eng+0x328>
 2ee:	eb00 0340 	add.w	r3, r0, r0, lsl #1
 2f2:	17de      	asrs	r6, r3, #31
 2f4:	eb03 7396 	add.w	r3, r3, r6, lsr #30
 2f8:	f023 0303 	bic.w	r3, r3, #3
 2fc:	17ce      	asrs	r6, r1, #31
 2fe:	58d3      	ldr	r3, [r2, r3]
 300:	eb01 7156 	add.w	r1, r1, r6, lsr #29
 304:	ebb3 0fe1 	cmp.w	r3, r1, asr #3
 308:	dd05      	ble.n	316 <Est_Motion_Idx_From_Mems_Eng+0x316>
 30a:	f9b4 3b32 	ldrsh.w	r3, [r4, #2866]	; 0xb32
 30e:	1f5b      	subs	r3, r3, #5
 310:	ebb3 0f65 	cmp.w	r3, r5, asr #1
 314:	db08      	blt.n	328 <Est_Motion_Idx_From_Mems_Eng+0x328>
 316:	17c3      	asrs	r3, r0, #31
 318:	eb00 7093 	add.w	r0, r0, r3, lsr #30
 31c:	f020 0003 	bic.w	r0, r0, #3
 320:	5810      	ldr	r0, [r2, r0]
 322:	ebb0 0fe1 	cmp.w	r0, r1, asr #3
 326:	dd02      	ble.n	32e <Est_Motion_Idx_From_Mems_Eng+0x32e>
 328:	1068      	asrs	r0, r5, #1
 32a:	f8a4 0b30 	strh.w	r0, [r4, #2864]	; 0xb30
 32e:	f9b4 0b30 	ldrsh.w	r0, [r4, #2864]	; 0xb30
 332:	2864      	cmp	r0, #100	; 0x64
 334:	da1f      	bge.n	376 <Est_Motion_Idx_From_Mems_Eng+0x376>
 336:	f8d4 187c 	ldr.w	r1, [r4, #2172]	; 0x87c
 33a:	f640 32b8 	movw	r2, #3000	; 0xbb8
 33e:	4291      	cmp	r1, r2
 340:	dd19      	ble.n	376 <Est_Motion_Idx_From_Mems_Eng+0x376>
 342:	f8d4 1588 	ldr.w	r1, [r4, #1416]	; 0x588
 346:	eeb6 1a00 	vmov.f32	s2, #96	; 0x3f000000  0.5
 34a:	f851 2030 	ldr.w	r2, [r1, r0, lsl #3]
 34e:	f851 1020 	ldr.w	r1, [r1, r0, lsl #2]
 352:	ee00 2a10 	vmov	s0, r2
 356:	eef8 0ac0 	vcvt.f32.s32	s1, s0
 35a:	ee00 1a10 	vmov	s0, r1
 35e:	eeb8 0ac0 	vcvt.f32.s32	s0, s0
 362:	ee20 0a01 	vmul.f32	s0, s0, s2
 366:	eef4 0ac0 	vcmpe.f32	s1, s0
 36a:	eef1 fa10 	vmrs	APSR_nzcv, fpscr
 36e:	dd02      	ble.n	376 <Est_Motion_Idx_From_Mems_Eng+0x376>
 370:	0040      	lsls	r0, r0, #1
 372:	f8a4 0b30 	strh.w	r0, [r4, #2864]	; 0xb30
 376:	e8bd 8ffe 	ldmia.w	sp!, {r1, r2, r3, r4, r5, r6, r7, r8, r9, sl, fp, pc}
 37a:	0000      	.short	0x0000
 37c:	3f333333 	.word	0x3f333333

Disassembly of section i.Grp_Tracking_Chk:

00000000 <Grp_Tracking_Chk>:
   0:	e92d 4ff3 	stmdb	sp!, {r0, r1, r4, r5, r6, r7, r8, r9, sl, fp, lr}
   4:	4604      	mov	r4, r0
   6:	b083      	sub	sp, #12
   8:	2000      	movs	r0, #0
   a:	4682      	mov	sl, r0
   c:	9002      	str	r0, [sp, #8]
   e:	f242 700f 	movw	r0, #9999	; 0x270f
  12:	f504 5500 	add.w	r5, r4, #8192	; 0x2000
  16:	9000      	str	r0, [sp, #0]
  18:	f8d5 0884 	ldr.w	r0, [r5, #2180]	; 0x884
  1c:	2803      	cmp	r0, #3
  1e:	db7c      	blt.n	11a <Grp_Tracking_Chk+0x11a>
  20:	f9b5 0b1e 	ldrsh.w	r0, [r5, #2846]	; 0xb1e
  24:	2803      	cmp	r0, #3
  26:	db20      	blt.n	6a <Grp_Tracking_Chk+0x6a>
  28:	2100      	movs	r1, #0
  2a:	4608      	mov	r0, r1
  2c:	f9b4 20bc 	ldrsh.w	r2, [r4, #188]	; 0xbc
  30:	e011      	b.n	56 <Grp_Tracking_Chk+0x56>
  32:	bf00      	nop
  34:	eb04 0380 	add.w	r3, r4, r0, lsl #2
  38:	f503 5330 	add.w	r3, r3, #11264	; 0x2c00
  3c:	edd4 0a0d 	vldr	s1, [r4, #52]	; 0x34
  40:	ed93 0aab 	vldr	s0, [r3, #684]	; 0x2ac
  44:	eeb4 0ae0 	vcmpe.f32	s0, s1
  48:	eef1 fa10 	vmrs	APSR_nzcv, fpscr
  4c:	dd01      	ble.n	52 <Grp_Tracking_Chk+0x52>
  4e:	2101      	movs	r1, #1
  50:	e003      	b.n	5a <Grp_Tracking_Chk+0x5a>
  52:	1c40      	adds	r0, r0, #1
  54:	b200      	sxth	r0, r0
  56:	4282      	cmp	r2, r0
  58:	dcec      	bgt.n	34 <Grp_Tracking_Chk+0x34>
  5a:	f895 0b28 	ldrb.w	r0, [r5, #2856]	; 0xb28
  5e:	2801      	cmp	r0, #1
  60:	d00a      	beq.n	78 <Grp_Tracking_Chk+0x78>
  62:	f895 0b29 	ldrb.w	r0, [r5, #2857]	; 0xb29
  66:	2801      	cmp	r0, #1
  68:	d043      	beq.n	f2 <Grp_Tracking_Chk+0xf2>
  6a:	f8b5 0b14 	ldrh.w	r0, [r5, #2836]	; 0xb14
  6e:	f8b4 1040 	ldrh.w	r1, [r4, #64]	; 0x40
  72:	1842      	adds	r2, r0, r1
  74:	b217      	sxth	r7, r2
  76:	e044      	b.n	102 <Grp_Tracking_Chk+0x102>
  78:	f8b5 0b14 	ldrh.w	r0, [r5, #2836]	; 0xb14
  7c:	f8b4 2042 	ldrh.w	r2, [r4, #66]	; 0x42
  80:	4402      	add	r2, r0
  82:	b217      	sxth	r7, r2
  84:	f8b4 2040 	ldrh.w	r2, [r4, #64]	; 0x40
  88:	1a80      	subs	r0, r0, r2
  8a:	b206      	sxth	r6, r0
  8c:	f9b5 0b30 	ldrsh.w	r0, [r5, #2864]	; 0xb30
  90:	ee00 0a10 	vmov	s0, r0
  94:	eeb8 0ac0 	vcvt.f32.s32	s0, s0
  98:	eddf 0a8a 	vldr	s1, [pc, #552]	; 2c4 <Grp_Tracking_Chk+0x2c4>
  9c:	ee20 1a20 	vmul.f32	s2, s0, s1
  a0:	ee00 7a10 	vmov	s0, r7
  a4:	eeb8 0ac0 	vcvt.f32.s32	s0, s0
  a8:	eeb4 1ac0 	vcmpe.f32	s2, s0
  ac:	eef1 fa10 	vmrs	APSR_nzcv, fpscr
  b0:	d20a      	bcs.n	c8 <Grp_Tracking_Chk+0xc8>
  b2:	ee00 0a10 	vmov	s0, r0
  b6:	eeb8 0ac0 	vcvt.f32.s32	s0, s0
  ba:	ee20 0a20 	vmul.f32	s0, s0, s1
  be:	eebd 0ac0 	vcvt.s32.f32	s0, s0
  c2:	ee10 2a10 	vmov	r2, s0
  c6:	b217      	sxth	r7, r2
  c8:	b1e9      	cbz	r1, 106 <Grp_Tracking_Chk+0x106>
  ca:	ee00 0a10 	vmov	s0, r0
  ce:	edd4 0a18 	vldr	s1, [r4, #96]	; 0x60
  d2:	eeb8 0ac0 	vcvt.f32.s32	s0, s0
  d6:	ee20 0a80 	vmul.f32	s0, s1, s0
  da:	eebd 0ac0 	vcvt.s32.f32	s0, s0
  de:	ee10 0a10 	vmov	r0, s0
  e2:	b200      	sxth	r0, r0
  e4:	4286      	cmp	r6, r0
  e6:	dd0e      	ble.n	106 <Grp_Tracking_Chk+0x106>
  e8:	ebb6 0f40 	cmp.w	r6, r0, lsl #1
  ec:	da0b      	bge.n	106 <Grp_Tracking_Chk+0x106>
  ee:	4606      	mov	r6, r0
  f0:	e009      	b.n	106 <Grp_Tracking_Chk+0x106>
  f2:	f8b5 0b14 	ldrh.w	r0, [r5, #2836]	; 0xb14
  f6:	f8b4 1040 	ldrh.w	r1, [r4, #64]	; 0x40
  fa:	4401      	add	r1, r0
  fc:	b20f      	sxth	r7, r1
  fe:	f8b4 1042 	ldrh.w	r1, [r4, #66]	; 0x42
 102:	1a40      	subs	r0, r0, r1
 104:	b206      	sxth	r6, r0
 106:	f9b4 0022 	ldrsh.w	r0, [r4, #34]	; 0x22
 10a:	42b8      	cmp	r0, r7
 10c:	dc00      	bgt.n	110 <Grp_Tracking_Chk+0x110>
 10e:	4607      	mov	r7, r0
 110:	f9b4 0024 	ldrsh.w	r0, [r4, #36]	; 0x24
 114:	42b0      	cmp	r0, r6
 116:	db06      	blt.n	126 <Grp_Tracking_Chk+0x126>
 118:	e000      	b.n	11c <Grp_Tracking_Chk+0x11c>
 11a:	e0cc      	b.n	2b6 <Grp_Tracking_Chk+0x2b6>
 11c:	f895 1b51 	ldrb.w	r1, [r5, #2897]	; 0xb51
 120:	2901      	cmp	r1, #1
 122:	d002      	beq.n	12a <Grp_Tracking_Chk+0x12a>
 124:	4606      	mov	r6, r0
 126:	2000      	movs	r0, #0
 128:	e08f      	b.n	24a <Grp_Tracking_Chk+0x24a>
 12a:	f8b5 0b4c 	ldrh.w	r0, [r5, #2892]	; 0xb4c
 12e:	f8b4 1050 	ldrh.w	r1, [r4, #80]	; 0x50
 132:	1a40      	subs	r0, r0, r1
 134:	b206      	sxth	r6, r0
 136:	e7f6      	b.n	126 <Grp_Tracking_Chk+0x126>
 138:	eb04 0049 	add.w	r0, r4, r9, lsl #1
 13c:	f500 5b00 	add.w	fp, r0, #8192	; 0x2000
 140:	f9bb 0ae4 	ldrsh.w	r0, [fp, #2788]	; 0xae4
 144:	2803      	cmp	r0, #3
 146:	db7a      	blt.n	23e <Grp_Tracking_Chk+0x23e>
 148:	f9bb 1abe 	ldrsh.w	r1, [fp, #2750]	; 0xabe
 14c:	42b1      	cmp	r1, r6
 14e:	db42      	blt.n	1d6 <Grp_Tracking_Chk+0x1d6>
